(dp0
I0
(lp1
I4383
aI1739
aI7301
asI434179
(lp2
I2443
aI2321
aI5671
asI212997
(lp3
I4749
aI2546
aI3884
asI28673
(lp4
I4300
aI2978
aI2862
asI376841
(lp5
I3701
aI3256
aI5784
asI262155
(lp6
I3884
aI3091
aI4561
asI589837
(lp7
I4381
aI1748
aI6547
asI589838
(lp8
I4263
aI1850
aI6575
asI79192
(lp9
I4872
aI2633
aI2425
asI417810
(lp10
I3746
aI3290
aI5539
asI131091
(lp11
I4954
aI3041
aI2928
asI548884
(lp12
I2198
aI3662
aI6625
asI96942
(lp13
I4819
aI2672
aI2912
asI398681
(lp14
I3420
aI1913
aI5443
asI434200
(lp15
I2244
aI2417
aI5661
asI327705
(lp16
I4291
aI4110
aI3125
asI286746
(lp17
I3952
aI1930
aI4601
asI551599
(lp18
I3034
aI1760
aI6410
asI29
(lp19
I3105
aI3260
aI1897
asI426015
(lp20
I4108
aI2094
aI5359
asI16417
(lp21
I3911
aI3481
aI3131
asI38
(lp22
I2779
aI2824
aI1606
asI466983
(lp23
I3712
aI1863
aI5739
asI275804
(lp24
I3881
aI2943
aI4553
asI442410
(lp25
I2777
aI1834
aI5804
asI245803
(lp26
I2393
aI3057
aI4213
asI426029
(lp27
I4338
aI1913
aI5527
asI8912942
(lp28
I4368
aI3299
aI4395
asI47
(lp29
I3240
aI2909
aI2004
asI139312
(lp30
I2412
aI3053
aI3482
asI192520
(lp31
I2300
aI2630
aI3600
asI50
(lp32
I3240
aI3198
aI1602
asI90163
(lp33
I2524
aI3471
aI2929
asI8926
(lp34
I3722
aI2411
aI1918
asI196617
(lp35
I2286
aI3361
aI3929
asI56
(lp36
I3082
aI3092
aI2408
asI532746
(lp37
I4368
aI1846
aI6393
asI147516
(lp38
I3390
aI2255
aI3191
asI679997
(lp39
I2218
aI2993
aI6378
asI516159
(lp40
I4268
aI3178
aI6256
asI229441
(lp41
I4854
aI3422
aI3250
asI507971
(lp42
I2692
aI3484
aI5809
asI245828
(lp43
I2412
aI2493
aI4138
asI8261
(lp44
I3720
aI2803
aI2213
asI470552
(lp45
I3589
aI2558
aI5871
asI71
(lp46
I2731
aI3081
aI1517
asI16458
(lp47
I3139
aI4070
aI2037
asI417867
(lp48
I3655
aI3517
aI5623
asI1589324
(lp49
I4411
aI4062
aI2504
asI598093
(lp50
I1941
aI2397
aI7448
asI671822
(lp51
I4158
aI2040
aI7640
asI270415
(lp52
I3435
aI2315
aI4451
asI83
(lp53
I2536
aI2780
aI1727
asI84
(lp54
I2865
aI3265
aI1674
asI85
(lp55
I3948
aI3505
aI1547
asI170681
(lp56
I3918
aI2524
aI3643
asI376920
(lp57
I3118
aI2795
aI6468
asI161124
(lp58
I3998
aI2295
aI3594
asI8282
(lp59
I3139
aI2564
aI1709
asI184335
(lp60
I4580
aI2338
aI3247
asI139356
(lp61
I2711
aI3261
aI3585
asI96
(lp62
I3090
aI2774
aI1735
asI284788
(lp63
I4077
aI2174
aI4553
asI393314
(lp64
I2761
aI3666
aI5545
asI409700
(lp65
I3737
aI3718
aI5339
asI111974
(lp66
I3544
aI2702
aI3061
asI102
(lp67
I2629
aI2861
aI1590
asI103
(lp68
I3795
aI2650
aI2062
asI475241
(lp69
I3569
aI3758
aI5513
asI286826
(lp70
I3780
aI2577
aI4496
asI532587
(lp71
I4271
aI1857
aI6045
asI418179
(lp72
I4150
aI2972
aI5175
asI508013
(lp73
I2505
aI3683
aI6585
asI110
(lp74
I3101
aI2965
aI3167
asI16495
(lp75
I4454
aI2625
aI4505
asI16497
(lp76
I4063
aI2060
aI4142
asI16499
(lp77
I3796
aI2721
aI1525
asI117
(lp78
I3026
aI3005
aI2229
asI565366
(lp79
I4079
aI2192
aI6258
asI259433
(lp80
I3639
aI1947
aI4816
asI671864
(lp81
I4078
aI2008
aI7590
asI122
(lp82
I2616
aI3142
aI1862
asI257342
(lp83
I4176
aI2930
aI4222
asI247146
(lp84
I4169
aI2457
aI4434
asI524414
(lp85
I3735
aI2840
aI6244
asI393343
(lp86
I2629
aI3862
aI5247
asI155777
(lp87
I3085
aI4184
aI3119
asI589954
(lp88
I4340
aI1804
aI6805
asI221315
(lp89
I3518
aI3736
aI3591
asI533941
(lp90
I4067
aI2145
aI6295
asI589957
(lp91
I4149
aI2013
aI6858
asI245894
(lp92
I2307
aI2545
aI4192
asI360586
(lp93
I4372
aI2572
aI4865
asI139
(lp94
I3001
aI2028
aI4894
asI300005
(lp95
I4618
aI2778
aI4313
asI426127
(lp96
I4488
aI2203
aI5354
asI146
(lp97
I3159
aI3002
aI2152
asI24723
(lp98
I4152
aI4196
aI1638
asI286868
(lp99
I4034
aI2727
aI4393
asI79214
(lp100
I4812
aI2520
aI2553
asI61465
(lp101
I4151
aI2163
aI3813
asI671896
(lp102
I4351
aI1996
aI7606
asI565401
(lp103
I3196
aI1881
aI6603
asI434331
(lp104
I1984
aI2712
aI5610
asI114844
(lp105
I3915
aI3481
aI2988
asI409757
(lp106
I3729
aI3647
aI5478
asI91660
(lp107
I2890
aI3449
aI2986
asI139424
(lp108
I2849
aI2709
aI3526
asI376993
(lp109
I2652
aI3498
aI5363
asI139426
(lp110
I2553
aI3451
aI3417
asI245925
(lp111
I2896
aI2938
aI4227
asI82086
(lp112
I4952
aI3138
aI2714
asI491687
(lp113
I2647
aI3170
aI6711
asI434344
(lp114
I2880
aI2497
aI5967
asI82089
(lp115
I4577
aI2605
aI3954
asI663722
(lp116
I3620
aI2626
aI7975
asI108573
(lp117
I4878
aI3654
aI2876
asI270511
(lp118
I4577
aI2118
aI4945
asI82096
(lp119
I4963
aI2868
aI2483
asI360625
(lp120
I4557
aI2305
aI4942
asI360626
(lp121
I4483
aI2382
aI4893
asI16563
(lp122
I3832
aI2760
aI1528
asI82100
(lp123
I5005
aI3004
aI2451
asI90293
(lp124
I4342
aI2314
aI3079
asI82102
(lp125
I4578
aI2854
aI2432
asI442553
(lp126
I3057
aI1846
aI5827
asI16571
(lp127
I3796
aI2046
aI4379
asI532668
(lp128
I4072
aI1962
aI6486
asI363210
(lp129
I4442
aI1947
aI4914
asI532670
(lp130
I3755
aI1832
aI6712
asI185717
(lp131
I4793
aI2996
aI3325
asI450752
(lp132
I3036
aI3583
aI5638
asI194
(lp133
I2604
aI3044
aI1699
asI395541
(lp134
I2950
aI1960
aI5591
asI198
(lp135
I3692
aI2884
aI2136
asI633953
(lp136
I4145
aI3045
aI7510
asI139464
(lp137
I2667
aI3016
aI3794
asI434377
(lp138
I2268
aI2459
aI5633
asI532682
(lp139
I4040
aI1846
aI6562
asI284023
(lp140
I4239
aI2042
aI5520
asI10957
(lp141
I3362
aI3403
aI1781
asI377042
(lp142
I2991
aI3414
aI5614
asI532691
(lp143
I4226
aI1748
aI6451
asI216
(lp144
I3114
aI2702
aI1656
asI590041
(lp145
I4113
aI1998
aI6619
asI595322
(lp146
I4376
aI2774
aI6584
asI532704
(lp147
I4086
aI1903
aI6074
asI254179
(lp148
I2490
aI3901
aI4306
asI571214
(lp149
I3142
aI3082
aI6933
asI16422
(lp150
I3447
aI4176
aI2055
asI422472
(lp151
I3909
aI3780
aI5253
asI508135
(lp152
I2843
aI3408
aI6575
asI79228
(lp153
I4957
aI2682
aI2409
asI622826
(lp154
I3831
aI2700
aI7537
asI352295
(lp155
I3941
aI2645
aI5215
asI344532
(lp156
I3738
aI3546
aI4817
asI146130
(lp157
I2917
aI2696
aI3078
asI196847
(lp158
I3856
aI2273
aI3962
asI580489
(lp159
I4113
aI2402
aI6695
asI481469
(lp160
I4192
aI2381
aI6064
asI565491
(lp161
I3355
aI2118
aI6723
asI508148
(lp162
I2967
aI3650
aI6400
asI79230
(lp163
I4976
aI2502
aI2640
asI8929526
(lp164
I2443
aI3782
aI5134
asI158420
(lp165
I3189
aI3936
aI3498
asI430459
(lp166
I4497
aI2682
aI5476
asI622634
(lp167
I4119
aI2086
aI7377
asI139518
(lp168
I2396
aI3269
aI3543
asI24832
(lp169
I4558
aI3748
aI2030
asI258
(lp170
I4597
aI3032
aI1643
asI73325
(lp171
I4977
aI3040
aI2655
asI442628
(lp172
I2670
aI2085
aI5738
asI532741
(lp173
I4334
aI1819
aI6164
asI532742
(lp174
I4336
aI1824
aI6261
asI16647
(lp175
I4095
aI3210
aI2965
asI456526
(lp176
I3171
aI1880
aI5965
asI532745
(lp177
I4262
aI1777
aI6362
asI139530
(lp178
I3449
aI2672
aI4784
asI590091
(lp179
I4291
aI1752
aI6876
asI90380
(lp180
I2884
aI4189
aI2872
asI16654
(lp181
I4014
aI2692
aI1832
asI16656
(lp182
I3560
aI2320
aI1858
asI16658
(lp183
I4295
aI2282
aI1961
asI311571
(lp184
I4219
aI3358
aI5392
asI9
(lp185
I2900
aI2805
aI1731
asI139544
(lp186
I2609
aI3238
aI3533
asI13700
(lp187
I3515
aI3851
aI1537
asI196890
(lp188
I2996
aI3854
aI4062
asI438319
(lp189
I3864
aI2551
aI5812
asI491804
(lp190
I2258
aI3072
aI6333
asI527066
(lp191
I3874
aI3245
aI7069
asI630832
(lp192
I4354
aI1883
aI7252
asI532772
(lp193
I4347
aI2248
aI6169
asI16677
(lp194
I4760
aI2761
aI2111
asI87300
(lp195
I2918
aI2748
aI2630
asI319783
(lp196
I3861
aI2639
aI5047
asI16680
(lp197
I4950
aI3252
aI2739
asI16681
(lp198
I3926
aI2868
aI1959
asI139562
(lp199
I2395
aI2630
aI4992
asI442418
(lp200
I3171
aI2061
aI5522
asI302
(lp201
I3731
aI2899
aI2041
asI532783
(lp202
I4192
aI2639
aI6228
asI455873
(lp203
I3462
aI1901
aI6647
asI368945
(lp204
I4187
aI3032
aI4901
asI56476
(lp205
I4850
aI3507
aI2828
asI8499
(lp206
I3392
aI2812
aI3562
asI57652
(lp207
I3568
aI4263
aI2201
asI273118
(lp208
I4108
aI1988
aI4655
asI8502
(lp209
I4132
aI2431
aI1914
asI573751
(lp210
I3033
aI2782
aI6909
asI434489
(lp211
I3241
aI2268
aI7608
asI16650
(lp212
I4945
aI2983
aI2283
asI16699
(lp213
I4338
aI3576
aI2545
asI16702
(lp214
I3633
aI2392
aI2745
asI532799
(lp215
I4362
aI1850
aI6567
asI186615
(lp216
I4842
aI2965
aI3284
asI377156
(lp217
I2362
aI2842
aI5662
asI303072
(lp218
I4482
aI2911
aI4908
asI344390
(lp219
I3365
aI3781
aI4780
asI377159
(lp220
I2015
aI3448
aI6175
asI532755
(lp221
I4314
aI2026
aI6651
asI532809
(lp222
I4282
aI1973
aI7035
asI434506
(lp223
I2070
aI2380
aI5629
asI467275
(lp224
I4238
aI2092
aI5653
asI434508
(lp225
I2036
aI2570
aI5926
asI549201
(lp226
I2383
aI3653
aI6654
asI237906
(lp227
I4752
aI2631
aI3823
asI311636
(lp228
I2174
aI3477
aI4839
asI377173
(lp229
I3242
aI3147
aI5902
asI172374
(lp230
I4817
aI2756
aI1747
asI262489
(lp231
I4117
aI3778
aI4497
asI418140
(lp232
I3765
aI3390
aI5143
asI360799
(lp233
I4449
aI2190
aI4677
asI377188
(lp234
I2057
aI3261
aI5600
asI633574
(lp235
I4364
aI2480
aI7374
asI328038
(lp236
I2918
aI3461
aI4664
asI532839
(lp237
I4375
aI1948
aI6891
asI465106
(lp238
I3547
aI3334
aI5773
asI361
(lp239
I3276
aI3087
aI1688
asI278890
(lp240
I4450
aI3214
aI4426
asI588923
(lp241
I3887
aI3331
aI6959
asI508271
(lp242
I2665
aI3356
aI6762
asI301800
(lp243
I4298
aI2597
aI4500
asI442739
(lp244
I2997
aI1785
aI5537
asI377204
(lp245
I2281
aI3117
aI5772
asI459126
(lp246
I3591
aI2865
aI5687
asI377210
(lp247
I2133
aI3797
aI5485
asI16763
(lp248
I4732
aI3093
aI2488
asI164222
(lp249
I3775
aI3372
aI3102
asI57728
(lp250
I3246
aI4250
aI2340
asI551659
(lp251
I3058
aI2203
aI6983
asI409988
(lp252
I3727
aI3634
aI6936
asI79254
(lp253
I4920
aI2730
aI2654
asI450951
(lp254
I2770
aI3666
aI6164
asI418184
(lp255
I3914
aI3302
aI5112
asI2796
(lp256
I3470
aI3266
aI1516
asI532874
(lp257
I4272
aI1871
aI6822
asI632215
(lp258
I4208
aI2767
aI7369
asI352652
(lp259
I4390
aI2101
aI4800
asI532877
(lp260
I4380
aI1844
aI6756
asI82318
(lp261
I4987
aI2892
aI2239
asI139663
(lp262
I4291
aI2273
aI3773
asI197009
(lp263
I2243
aI3539
aI4096
asI385091
(lp264
I3012
aI2757
aI5126
asI360853
(lp265
I4527
aI2078
aI4738
asI131478
(lp266
I4628
aI2412
aI3055
asI33176
(lp267
I4170
aI3985
aI3002
asI286788
(lp268
I3821
aI2465
aI4530
asI459162
(lp269
I3511
aI2611
aI5837
asI180635
(lp270
I4044
aI3739
aI3118
asI95642
(lp271
I4663
aI2869
aI3000
asI69398
(lp272
I4090
aI2325
aI2633
asI401824
(lp273
I3463
aI2711
aI5331
asI367344
(lp274
I4268
aI3372
aI4659
asI82338
(lp275
I5008
aI3011
aI2299
asI377253
(lp276
I1977
aI3246
aI5805
asI369063
(lp277
I4454
aI3043
aI4820
asI49578
(lp278
I3053
aI2285
aI2272
asI16455
(lp279
I3967
aI3561
aI2147
asI410307
(lp280
I3712
aI1949
aI5420
asI79261
(lp281
I4948
aI2842
aI2926
asI633961
(lp282
I4369
aI2996
aI7723
asI660421
(lp283
I3265
aI1973
aI7638
asI508349
(lp284
I3026
aI1766
aI6150
asI61924
(lp285
I4449
aI2449
aI2575
asI412405
(lp286
I3765
aI2037
aI5335
asI197056
(lp287
I2405
aI3262
aI4145
asI427424
(lp288
I4319
aI2667
aI5012
asI508354
(lp289
I3372
aI1772
aI6009
asI254403
(lp290
I2354
aI3696
aI4281
asI311748
(lp291
I4191
aI2059
aI5717
asI500165
(lp292
I4322
aI2410
aI6775
asI606662
(lp293
I3874
aI3090
aI7597
asI57799
(lp294
I3585
aI4097
aI2373
asI508361
(lp295
I3187
aI1745
aI6113
asI49610
(lp296
I3169
aI2782
aI2180
asI467404
(lp297
I4307
aI2184
aI6474
asI8921549
(lp298
I2781
aI3032
aI6233
asI77
(lp299
I2555
aI2670
aI4164
asI410065
(lp300
I3687
aI1894
aI5000
asI254418
(lp301
I2412
aI3792
aI4320
asI254419
(lp302
I2272
aI3895
aI4409
asI147924
(lp303
I4169
aI3560
aI3431
asI36010
(lp304
I4989
aI2704
aI2339
asI459224
(lp305
I3198
aI2779
aI5858
asI246233
(lp306
I2306
aI2505
aI4230
asI474
(lp307
I4552
aI3162
aI2031
asI442847
(lp308
I3209
aI1789
aI5768
asI90592
(lp309
I4348
aI4092
aI2923
asI377316
(lp310
I2829
aI3322
aI5594
asI66982
(lp311
I3907
aI3913
aI2009
asI16870
(lp312
I3563
aI2290
aI1961
asI90603
(lp313
I3480
aI4047
aI2848
asI532974
(lp314
I4250
aI1913
aI6109
asI439720
(lp315
I2102
aI3047
aI6170
asI434674
(lp316
I2735
aI2887
aI5733
asI442867
(lp317
I2472
aI2070
aI5599
asI132316
(lp318
I4956
aI3310
aI2799
asI623093
(lp319
I3713
aI2545
aI7128
asI66038
(lp320
I3518
aI3541
aI2371
asI254455
(lp321
I2829
aI3972
aI4285
asI442873
(lp322
I3036
aI1932
aI5819
asI352763
(lp323
I4283
aI2647
aI4781
asI180732
(lp324
I4110
aI4082
aI3297
asI293632
(lp325
I4023
aI3812
aI4234
asI90627
(lp326
I4292
aI4166
aI2947
asI385540
(lp327
I3015
aI2718
aI5192
asI557574
(lp328
I3858
aI3094
aI7184
asI585954
(lp329
I3891
aI3684
aI6985
asI262667
(lp330
I4501
aI3040
aI4946
asI54301
(lp331
I3419
aI3818
aI2254
asI555778
(lp332
I3042
aI2660
aI6551
asI188946
(lp333
I4714
aI3525
aI3088
asI170755
(lp334
I4131
aI2322
aI3373
asI423342
(lp335
I3387
aI3561
aI5022
asI534
(lp336
I3279
aI3044
aI3140
asI385559
(lp337
I3929
aI2456
aI5232
asI467480
(lp338
I3992
aI1846
aI5785
asI105220
(lp339
I3325
aI4237
aI2729
asI311834
(lp340
I4343
aI3190
aI5309
asI308573
(lp341
I2723
aI2754
aI4969
asI631325
(lp342
I4370
aI2286
aI7271
asI328227
(lp343
I3438
aI3676
aI4640
asI254506
(lp344
I2226
aI3767
aI4275
asI170759
(lp345
I4147
aI2381
aI3363
asI8749
(lp346
I4262
aI2389
aI2198
asI35753
(lp347
I4885
aI2550
aI2132
asI161203
(lp348
I3408
aI2939
aI3505
asI200798
(lp349
I4355
aI2724
aI4353
asI8759
(lp350
I3547
aI2302
aI1982
asI557627
(lp351
I3155
aI3536
aI7052
asI475206
(lp352
I3866
aI3528
aI5935
asI8765
(lp353
I3311
aI2289
aI1847
asI197182
(lp354
I2245
aI3321
aI4000
asI311871
(lp355
I2688
aI3371
aI4918
asI311872
(lp356
I2588
aI3555
aI4856
asI647746
(lp357
I2055
aI2317
aI7593
asI296374
(lp358
I4052
aI3869
aI4551
asI205383
(lp359
I2841
aI3120
aI4182
asI430077
(lp360
I4499
aI2512
aI5382
asI439735
(lp361
I2523
aI2733
aI6789
asI328269
(lp362
I2629
aI3640
aI4583
asI197198
(lp363
I3235
aI3662
aI4691
asI508497
(lp364
I2864
aI1883
aI5785
asI377426
(lp365
I2419
aI3354
aI5558
asI8787
(lp366
I3757
aI2919
aI2173
asI377429
(lp367
I2281
aI2816
aI5648
asI492119
(lp368
I2443
aI3025
aI6576
asI139865
(lp369
I3297
aI3714
aI3271
asI129046
(lp370
I4953
aI2683
aI2745
asI156251
(lp371
I2901
aI3832
aI3110
asI499212
(lp372
I2899
aI1821
aI6806
asI56486
(lp373
I2853
aI3968
aI3334
asI254560
(lp374
I4599
aI2435
aI4569
asI8801
(lp375
I3095
aI2379
aI2053
asI557667
(lp376
I3955
aI4000
aI3573
asI557668
(lp377
I2621
aI3576
aI6942
asI320102
(lp378
I2756
aI1989
aI4896
asI148071
(lp379
I3692
aI2386
aI3436
asI538587
(lp380
I4381
aI3036
aI6433
asI544871
(lp381
I2298
aI2407
aI6993
asI478481
(lp382
I4154
aI1835
aI6068
asI475757
(lp383
I3957
aI3565
aI5600
asI459374
(lp384
I3791
aI3762
aI5964
asI197232
(lp385
I2323
aI3353
aI4125
asI434802
(lp386
I2056
aI2603
aI5705
asI410228
(lp387
I3699
aI2409
aI5505
asI475766
(lp388
I3677
aI3768
aI5639
asI557687
(lp389
I3392
aI2959
aI7216
asI17016
(lp390
I4342
aI2577
aI3089
asI318228
(lp391
I2911
aI2399
aI4686
asI467582
(lp392
I3761
aI1877
aI6196
asI410240
(lp393
I4239
aI1804
aI5562
asI410243
(lp394
I3550
aI2509
aI5329
asI459396
(lp395
I3691
aI3157
aI6232
asI451205
(lp396
I3127
aI3443
aI6193
asI179785
(lp397
I4225
aI4204
aI3465
asI148103
(lp398
I4721
aI2716
aI3740
asI25226
(lp399
I3661
aI4037
aI1950
asI246412
(lp400
I2299
aI3213
aI4349
asI369294
(lp401
I4269
aI3057
aI4860
asI459407
(lp402
I3474
aI2589
aI5926
asI180880
(lp403
I4108
aI4113
aI3299
asI524945
(lp404
I3534
aI2252
aI6331
asI262803
(lp405
I3228
aI2639
aI4490
asI432533
(lp406
I4447
aI3161
aI5277
asI451221
(lp407
I2760
aI3773
aI5666
asI139926
(lp408
I2490
aI3514
aI3046
asI533143
(lp409
I4171
aI2011
aI6110
asI311961
(lp410
I2675
aI3820
aI4839
asI361459
(lp411
I4416
aI2163
aI4638
asI518309
(lp412
I3316
aI3661
aI6312
asI35611
(lp413
I4731
aI2585
aI2317
asI311975
(lp414
I2124
aI3085
aI4890
asI410280
(lp415
I4274
aI2135
aI5384
asI426665
(lp416
I4511
aI1941
aI5416
asI240597
(lp417
I4748
aI2993
aI3765
asI647858
(lp418
I2632
aI2058
aI7435
asI459444
(lp419
I4331
aI2447
aI6867
asI279224
(lp420
I3504
aI3934
aI4469
asI410297
(lp421
I3761
aI2028
aI5519
asI79220
(lp422
I4941
aI2734
aI2405
asI700
(lp423
I4615
aI3520
aI3515
asI595402
(lp424
I4030
aI3011
aI6689
asI500414
(lp425
I2704
aI2647
aI6198
asI74431
(lp426
I4298
aI4185
aI1946
asI410304
(lp427
I4274
aI2490
aI5458
asI246466
(lp428
I2431
aI3017
aI4338
asI13771
(lp429
I3699
aI3787
aI1620
asI17092
(lp430
I4144
aI2388
aI2383
asI516806
(lp431
I3361
aI3425
aI6150
asI428833
(lp432
I4504
aI2617
aI5282
asI128460
(lp433
I4327
aI3983
aI2984
asI246475
(lp434
I2721
aI2479
aI4509
asI49869
(lp435
I4361
aI2481
aI2599
asI33576
(lp436
I4515
aI3726
aI3263
asI312017
(lp437
I2477
aI3261
aI4961
asI598742
(lp438
I2279
aI2723
aI7338
asI197339
(lp439
I2443
aI4092
aI3553
asI565981
(lp440
I3419
aI1838
aI6939
asI393950
(lp441
I3721
aI3370
aI5561
asI139999
(lp442
I2743
aI3340
aI3248
asI25313
(lp443
I4291
aI4228
aI1940
asI565987
(lp444
I3254
aI1895
aI6671
asI246501
(lp445
I3348
aI2811
aI4487
asI79313
(lp446
I4857
aI2472
aI3243
asI336617
(lp447
I3935
aI2710
aI4833
asI680682
(lp448
I3187
aI4193
aI3243
asI346967
(lp449
I4408
aI2911
aI4648
asI598767
(lp450
I2083
aI2199
aI7374
asI393969
(lp451
I3031
aI3661
aI5438
asI410355
(lp452
I4104
aI2043
aI6565
asI508661
(lp453
I3705
aI1889
aI6746
asI262903
(lp454
I2832
aI2784
aI4510
asI246523
(lp455
I2208
aI2758
aI4248
asI312063
(lp456
I2403
aI3317
aI5131
asI28127
(lp457
I4242
aI2367
aI1903
asI266534
(lp458
I3605
aI3460
aI4550
asI377605
(lp459
I2240
aI3791
aI5317
asI774
(lp460
I2655
aI3038
aI1662
asI90887
(lp461
I2773
aI3565
aI2906
asI49928
(lp462
I3124
aI2404
aI2368
asI344841
(lp463
I3930
aI3388
aI4949
asI779
(lp464
I2620
aI3358
aI2204
asI197388
(lp465
I2772
aI4072
aI3601
asI664333
(lp466
I3023
aI3371
aI7953
asI475213
(lp467
I3599
aI3575
aI5931
asI494381
(lp468
I2189
aI3634
aI6276
asI254736
(lp469
I2232
aI3654
aI4429
asI394001
(lp470
I2967
aI3849
aI5389
asI254738
(lp471
I2938
aI3767
aI4476
asI377623
(lp472
I2424
aI3580
aI5169
asI541464
(lp473
I2973
aI1902
aI7359
asI39727
(lp474
I5017
aI3134
aI1834
asI484125
(lp475
I4294
aI3195
aI5950
asI443166
(lp476
I2490
aI1894
aI5967
asI800
(lp477
I2935
aI3929
aI1818
asI484130
(lp478
I4346
aI2988
aI6006
asI484132
(lp479
I4338
aI2962
aI5993
asI254086
(lp480
I2362
aI3844
aI4391
asI806
(lp481
I2667
aI3381
aI1683
asI584497
(lp482
I3966
aI2763
aI6698
asI140072
(lp483
I3173
aI3336
aI3428
asI486398
(lp484
I4257
aI2930
aI6150
asI553095
(lp485
I2670
aI2160
aI6748
asI172844
(lp486
I3968
aI2262
aI3392
asI482098
(lp487
I4242
aI2682
aI5732
asI467764
(lp488
I3952
aI1910
aI5875
asI140086
(lp489
I2433
aI3605
aI3524
asI4233
(lp490
I3224
aI4200
aI1884
asI598840
(lp491
I3481
aI2308
aI7216
asI312122
(lp492
I3351
aI2514
aI5118
asI353083
(lp493
I3869
aI3007
aI4684
asI506039
(lp494
I2757
aI3522
aI6468
asI541502
(lp495
I1934
aI2346
aI6007
asI23214
(lp496
I3917
aI2590
aI1738
asI33603
(lp497
I5003
aI3653
aI1625
asI140100
(lp498
I3164
aI3387
aI3499
asI310070
(lp499
I3939
aI3127
aI4999
asI33607
(lp500
I4359
aI4200
aI2142
asI598856
(lp501
I3143
aI2460
aI7332
asI516940
(lp502
I3249
aI3500
aI6107
asI402257
(lp503
I3453
aI2532
aI5374
asI17238
(lp504
I4070
aI2060
aI4737
asI158521
(lp505
I3037
aI3871
aI3497
asI435033
(lp506
I2635
aI2361
aI6030
asI131931
(lp507
I4784
aI2797
aI2509
asI582692
(lp508
I3889
aI3525
aI6311
asI50016
(lp509
I3134
aI2781
aI2300
asI462992
(lp510
I3603
aI2632
aI7097
asI432389
(lp511
I4298
aI3355
aI5208
asI26086
(lp512
I4012
aI4179
aI2048
asI90982
(lp513
I2935
aI3734
aI2885
asI873
(lp514
I3822
aI3724
aI1715
asI508778
(lp515
I3478
aI1801
aI6174
asI90988
(lp516
I3586
aI3976
aI2919
asI607085
(lp517
I3697
aI2190
aI7781
asI90993
(lp518
I4065
aI3350
aI3040
asI38195
(lp519
I4501
aI2517
aI2247
asI125782
(lp520
I4003
aI4217
aI2659
asI74615
(lp521
I4095
aI3446
aI2071
asI189305
(lp522
I4750
aI3594
aI3146
asI566141
(lp523
I3125
aI1806
aI6694
asI74625
(lp524
I4292
aI3710
aI3071
asI595514
(lp525
I4206
aI3122
aI6698
asI33670
(lp526
I4486
aI3530
aI2700
asI445249
(lp527
I2892
aI2250
aI6042
asI267084
(lp528
I3195
aI3889
aI4378
asI539321
(lp529
I4106
aI3007
aI6117
asI906
(lp530
I3227
aI3033
aI1820
asI172939
(lp531
I3896
aI2200
aI3808
asI566157
(lp532
I3218
aI1767
aI6771
asI410510
(lp533
I3965
aI2144
aI5052
asI394131
(lp534
I3100
aI3820
aI5223
asI33686
(lp535
I4456
aI4207
aI2697
asI197527
(lp536
I2648
aI3937
aI3558
asI33688
(lp537
I4504
aI3792
aI1611
asI435098
(lp538
I3387
aI2189
aI6900
asI33691
(lp539
I3635
aI3829
aI3535
asI328604
(lp540
I3040
aI3644
aI4666
asI33694
(lp541
I4031
aI3754
aI3422
asI682821
(lp542
I4489
aI4240
aI2138
asI140192
(lp543
I2558
aI3684
aI3084
asI312225
(lp544
I3472
aI3882
aI4960
asI672674
(lp545
I4098
aI2848
aI7771
asI254883
(lp546
I2987
aI3915
aI4375
asI287652
(lp547
I4149
aI2735
aI4442
asI28648
(lp548
I4054
aI3020
aI2165
asI672678
(lp549
I4285
aI3016
aI7676
asI464369
(lp550
I3215
aI3552
aI5830
asI9132
(lp551
I3710
aI2813
aI1611
asI254895
(lp552
I2545
aI3868
aI4353
asI1186632
(lp553
I3721
aI4213
aI3106
asI566194
(lp554
I3653
aI1807
aI6732
asI353204
(lp555
I3698
aI3459
aI4592
asI394165
(lp556
I2685
aI3845
aI5342
asI197558
(lp557
I2756
aI4105
aI3560
asI318281
(lp558
I3405
aI2336
aI4816
asI418744
(lp559
I4084
aI2939
aI5161
asI132026
(lp560
I4957
aI3016
aI2776
asI377788
(lp561
I2492
aI3587
aI5121
asI535370
(lp562
I4368
aI2525
aI6719
asI426118
(lp563
I4431
aI2580
aI5494
asI532776
(lp564
I4368
aI1989
aI6280
asI82080
(lp565
I5017
aI3695
aI1906
asI394179
(lp566
I2899
aI3680
aI5790
asI517065
(lp567
I3016
aI3228
aI6656
asI162
(lp568
I4339
aI3359
aI1668
asI517071
(lp569
I3524
aI3578
aI6107
asI279504
(lp570
I4249
aI2510
aI5163
asI977
(lp571
I2612
aI3347
aI1803
asI517074
(lp572
I3354
aI3604
aI6457
asI517076
(lp573
I3175
aI3330
aI6454
asI312280
(lp574
I2838
aI2797
aI5002
asI468474
(lp575
I4130
aI2333
aI5909
asI271997
(lp576
I3674
aI2124
aI4369
asI579423
(lp577
I3832
aI1918
aI7023
asI459749
(lp578
I3060
aI2610
aI5966
asI393931
(lp579
I2948
aI3545
aI5977
asI406668
(lp580
I3502
aI3743
aI5670
asI476137
(lp581
I3577
aI3586
aI5689
asI590304
(lp582
I4311
aI1782
aI6671
asI660167
(lp583
I3466
aI2064
aI7653
asI103933
(lp584
I2961
aI4149
aI2623
asI25584
(lp585
I4018
aI4157
aI1830
asI338011
(lp586
I4272
aI2747
aI5064
asI605011
(lp587
I3028
aI2068
aI7190
asI132087
(lp588
I4972
aI3196
aI2750
asI361464
(lp589
I4360
aI2067
aI4793
asI148473
(lp590
I3254
aI2237
aI3444
asI230395
(lp591
I3868
aI3221
aI3664
asI1020
(lp592
I2629
aI3276
aI1867
asI82090
(lp593
I4952
aI2977
aI2392
asI533502
(lp594
I4334
aI1927
aI6230
asI492543
(lp595
I2398
aI2947
aI6455
asI607233
(lp596
I2937
aI2782
aI7426
asI381099
(lp597
I3385
aI2387
aI5203
asI435205
(lp598
I2547
aI2587
aI5679
asI192073
(lp599
I2266
aI2696
aI3628
asI255489
(lp600
I2870
aI3859
aI4557
asI410632
(lp601
I3874
aI1894
aI5210
asI467977
(lp602
I4325
aI2096
aI5968
asI322391
(lp603
I3236
aI2608
aI4730
asI443406
(lp604
I2572
aI1877
aI5726
asI443407
(lp605
I2533
aI2104
aI5856
asI472221
(lp606
I3972
aI3237
aI5554
asI287762
(lp607
I4495
aI2623
aI4381
asI177616
(lp608
I4053
aI3301
aI3112
asI4270
(lp609
I3593
aI3897
aI2016
asI582678
(lp610
I4106
aI3094
aI6930
asI549911
(lp611
I1957
aI3515
aI6790
asI582680
(lp612
I4161
aI3137
aI7005
asI456860
(lp613
I3957
aI1936
aI5660
asI148509
(lp614
I4769
aI3059
aI3385
asI582686
(lp615
I3781
aI3103
aI6896
asI140319
(lp616
I2417
aI3610
aI3177
asI435232
(lp617
I2483
aI2285
aI5734
asI451618
(lp618
I2693
aI3421
aI5745
asI539483
(lp619
I4063
aI3136
aI6207
asI443428
(lp620
I2817
aI2154
aI5759
asI591832
(lp621
I4342
aI2499
aI6930
asI9255
(lp622
I3201
aI2781
aI2621
asI140328
(lp623
I2789
aI3716
aI3050
asI377897
(lp624
I3076
aI3698
aI5257
asI148523
(lp625
I3783
aI2692
aI3685
asI123951
(lp626
I4014
aI3738
aI2604
asI656432
(lp627
I2639
aI2703
aI7552
asI58888
(lp628
I3337
aI4187
aI2615
asI33842
(lp629
I4373
aI4254
aI1792
asI492596
(lp630
I1962
aI3166
aI6448
asI91189
(lp631
I2427
aI3571
aI3053
asI631862
(lp632
I4219
aI2798
aI7150
asI1080
(lp633
I2703
aI3254
aI1848
asI454836
(lp634
I4409
aI2627
aI5916
asI25660
(lp635
I4498
aI4207
aI1958
asI107581
(lp636
I3204
aI1932
aI5315
asI16565
(lp637
I3831
aI2745
aI1500
asI50240
(lp638
I4943
aI2945
aI2364
asI599105
(lp639
I1911
aI2549
aI7934
asI312388
(lp640
I2702
aI3293
aI4877
asI468037
(lp641
I3881
aI1986
aI6014
asI435270
(lp642
I2003
aI2297
aI5744
asI27489
(lp643
I4605
aI2864
aI1745
asI443464
(lp644
I3011
aI1908
aI5747
asI91209
(lp645
I2552
aI3366
aI3139
asI509003
(lp646
I3174
aI1776
aI6669
asI410700
(lp647
I3944
aI2254
aI5123
asI35771
(lp648
I4741
aI2635
aI3461
asI183453
(lp649
I4755
aI2237
aI3127
asI585912
(lp650
I3838
aI3497
aI6822
asI181331
(lp651
I4365
aI4181
aI3215
asI394325
(lp652
I3552
aI3625
aI6858
asI517206
(lp653
I3087
aI3549
aI6664
asI246871
(lp654
I2767
aI2771
aI4361
asI549977
(lp655
I2018
aI3448
aI6720
asI312410
(lp656
I2530
aI2751
aI5068
asI582747
(lp657
I3787
aI3335
aI6910
asI156764
(lp658
I3624
aI3934
aI3284
asI148573
(lp659
I3056
aI2614
aI3375
asI456675
(lp660
I3648
aI2302
aI6962
asI468064
(lp661
I3810
aI1996
aI5929
asI8922209
(lp662
I4597
aI3514
aI3579
asI9314
(lp663
I3267
aI3077
aI2096
asI74851
(lp664
I4583
aI3678
aI2231
asI179801
(lp665
I4265
aI3784
aI3498
asI279656
(lp666
I3965
aI3825
aI4534
asI360636
(lp667
I4472
aI2302
aI4858
asI371559
(lp668
I2268
aI2399
aI5304
asI479174
(lp669
I4460
aI1941
aI5608
asI549997
(lp670
I2062
aI3634
aI6734
asI132206
(lp671
I4800
aI2913
aI2964
asI82109
(lp672
I4986
aI3648
aI2482
asI594947
(lp673
I4027
aI3050
aI7017
asI140402
(lp674
I3341
aI3565
aI3182
asI66676
(lp675
I3353
aI3551
aI2693
asI585918
(lp676
I3863
aI3557
aI6347
asI522962
(lp677
I4262
aI2075
aI6705
asI66681
(lp678
I4075
aI4204
aI2177
asI66686
(lp679
I4122
aI4141
aI2605
asI435329
(lp680
I3373
aI1891
aI5992
asI158571
(lp681
I4131
aI3482
aI4142
asI13846
(lp682
I2643
aI3719
aI5393
asI107242
(lp683
I3564
aI2580
aI2690
asI9355
(lp684
I3241
aI2274
aI2196
asI16578
(lp685
I3760
aI2801
aI1527
asI541838
(lp686
I2023
aI2197
aI6777
asI334701
(lp687
I3593
aI3277
aI4902
asI533649
(lp688
I4224
aI1941
aI6186
asI451730
(lp689
I3200
aI3577
aI6348
asI544963
(lp690
I2223
aI3379
aI6827
asI468117
(lp691
I3922
aI2241
aI6628
asI304665
(lp692
I4593
aI3345
aI4591
asI443544
(lp693
I2955
aI2011
aI5715
asI149018
(lp694
I4391
aI3559
aI3537
asI331470
(lp695
I3636
aI1970
aI4605
asI459937
(lp696
I2949
aI2785
aI6697
asI91298
(lp697
I2972
aI3503
aI2932
asI439835
(lp698
I2044
aI2997
aI6007
asI91300
(lp699
I3770
aI2539
aI3071
asI188772
(lp700
I4672
aI3673
aI3117
asI279723
(lp701
I3507
aI3429
aI4649
asI246956
(lp702
I2218
aI2662
aI4396
asI255149
(lp703
I2795
aI3575
aI4372
asI443566
(lp704
I2609
aI2073
aI5918
asI9393
(lp705
I3619
aI2400
aI2720
asI552970
(lp706
I3008
aI1779
aI6778
asI607411
(lp707
I3402
aI2869
aI7576
asI320692
(lp708
I4195
aI1989
aI5156
asI493086
(lp709
I2295
aI3163
aI6926
asI246967
(lp710
I2366
aI2811
aI4320
asI320697
(lp711
I2802
aI2166
aI5134
asI550074
(lp712
I2347
aI3625
aI7089
asI246971
(lp713
I3540
aI1983
aI4504
asI182771
(lp714
I4860
aI2721
aI3371
asI550079
(lp715
I2031
aI3624
aI6796
asI607425
(lp716
I2935
aI3279
aI7418
asI378050
(lp717
I2071
aI3627
aI5063
asI312516
(lp718
I3792
aI3447
aI5180
asI148679
(lp719
I4041
aI4035
aI3354
asI91336
(lp720
I2502
aI3692
aI2934
asI217292
(lp721
I3538
aI3288
aI4112
asI320714
(lp722
I3130
aI2096
aI5088
asI369735
(lp723
I4249
aI3413
aI4885
asI22050
(lp724
I3919
aI3508
aI2408
asI9423
(lp725
I3804
aI2544
aI1888
asI435409
(lp726
I2074
aI2616
aI5900
asI132306
(lp727
I4938
aI3465
aI2830
asI509139
(lp728
I3357
aI1830
aI6177
asI238804
(lp729
I4752
aI2701
aI3814
asI238805
(lp730
I4482
aI2878
aI5498
asI179065
(lp731
I4715
aI3445
aI3617
asI238808
(lp732
I4617
aI2758
aI3878
asI550105
(lp733
I2411
aI3573
aI6774
asI574684
(lp734
I3350
aI3620
aI6766
asI238814
(lp735
I5013
aI3000
aI1874
asI574687
(lp736
I3328
aI3517
aI6928
asI394464
(lp737
I2822
aI3853
aI5430
asI50401
(lp738
I3198
aI2300
aI2440
asI427234
(lp739
I4398
aI2974
aI5312
asI238819
(lp740
I5004
aI3205
aI1972
asI427236
(lp741
I4314
aI2952
aI5310
asI574695
(lp742
I3149
aI3379
aI6915
asI173289
(lp743
I4177
aI2151
aI3524
asI541930
(lp744
I2275
aI2440
aI6774
asI197867
(lp745
I3384
aI4145
aI1986
asI189676
(lp746
I4537
aI3396
aI3165
asI238829
(lp747
I4639
aI2962
aI4101
asI320751
(lp748
I2769
aI1940
aI5034
asI640240
(lp749
I4027
aI2690
aI7227
asI22056
(lp750
I4510
aI3681
aI2173
asI296011
(lp751
I3896
aI3674
aI4573
asI9459
(lp752
I3224
aI2877
aI2466
asI9460
(lp753
I3366
aI2983
aI2379
asI443637
(lp754
I2984
aI1784
aI5751
asI574710
(lp755
I3135
aI3496
aI7090
asI468215
(lp756
I3834
aI2265
aI6159
asI541945
(lp757
I1922
aI2367
aI6585
asI247035
(lp758
I2710
aI2782
aI4434
asI312572
(lp759
I2700
aI2951
aI4961
asI255230
(lp760
I2877
aI3527
aI5014
asI574719
(lp761
I3164
aI3588
aI6954
asI451840
(lp762
I2829
aI3544
aI6009
asI443650
(lp763
I2632
aI1908
aI5843
asI255235
(lp764
I2301
aI3825
aI4498
asI386310
(lp765
I2763
aI3055
aI5218
asI574727
(lp766
I3865
aI3218
aI7359
asI22060
(lp767
I3904
aI3636
aI2186
asI320779
(lp768
I2911
aI2117
aI5079
asI509196
(lp769
I3412
aI1803
aI6475
asI427279
(lp770
I4276
aI3220
aI5481
asI132368
(lp771
I4964
aI3205
aI2783
asI427281
(lp772
I4370
aI2601
aI5513
asI187267
(lp773
I4851
aI2845
aI3279
asI91414
(lp774
I2500
aI3533
aI2981
asI534129
(lp775
I4208
aI1870
aI6288
asI255257
(lp776
I4088
aI3649
aI4790
asI238875
(lp777
I4697
aI2947
aI4046
asI492830
(lp778
I3072
aI3457
aI5897
asI1314
(lp779
I4471
aI4004
aI2263
asI9509
(lp780
I4800
aI2248
aI2981
asI117613
(lp781
I3673
aI4187
aI3017
asI566569
(lp782
I3330
aI1773
aI6788
asI96082
(lp783
I3140
aI2329
aI2926
asI35719
(lp784
I5013
aI2882
aI2324
asI435501
(lp785
I4382
aI2646
aI6083
asI533807
(lp786
I4343
aI1885
aI6321
asI492851
(lp787
I2573
aI3052
aI6963
asI320820
(lp788
I2960
aI2703
aI4981
asI378165
(lp789
I2434
aI3698
aI5100
asI378167
(lp790
I2046
aI3491
aI5084
asI427320
(lp791
I4293
aI2933
aI6402
asI312633
(lp792
I2505
aI3301
aI5067
asI427322
(lp793
I4468
aI2117
aI5936
asI9531
(lp794
I4385
aI3382
aI2512
asI173374
(lp795
I4107
aI2494
aI3471
asI489013
(lp796
I2211
aI2225
aI6629
asI255296
(lp797
I3086
aI3737
aI4446
asI431041
(lp798
I4129
aI3041
aI5346
asI527243
(lp799
I3876
aI3205
aI6223
asI378181
(lp800
I2654
aI3800
aI5362
asI574790
(lp801
I3437
aI3562
aI7015
asI78879
(lp802
I4381
aI4268
aI2430
asI542025
(lp803
I2207
aI2266
aI6716
asI128567
(lp804
I4349
aI4038
aI3348
asI435533
(lp805
I2317
aI2699
aI5843
asI632143
(lp806
I4278
aI2584
aI7126
asI509265
(lp807
I2989
aI2144
aI6190
asI591834
(lp808
I4379
aI2524
aI6856
asI39326
(lp809
I5015
aI3301
aI1731
asI316985
(lp810
I2970
aI2182
aI5013
asI296280
(lp811
I4164
aI3573
aI4484
asI164068
(lp812
I3449
aI3338
aI3640
asI378202
(lp813
I3756
aI2416
aI5660
asI427355
(lp814
I4408
aI2725
aI5450
asI75101
(lp815
I4561
aI3756
aI2277
asI263521
(lp816
I3281
aI3714
aI4202
asI492898
(lp817
I2156
aI3038
aI6573
asI263524
(lp818
I3262
aI3912
aI4664
asI323814
(lp819
I2667
aI2558
aI5101
asI9574
(lp820
I4723
aI2897
aI2878
asI9575
(lp821
I4180
aI3479
aI3032
asI550250
(lp822
I2426
aI3583
aI6800
asI377063
(lp823
I2776
aI3399
aI5621
asI132460
(lp824
I4965
aI2764
aI2876
asI492911
(lp825
I1931
aI3121
aI6646
asI42354
(lp826
I4843
aI3478
aI1903
asI91507
(lp827
I3683
aI3910
aI2724
asI320885
(lp828
I4524
aI2372
aI5090
asI625556
(lp829
I3680
aI3039
aI6878
asI361850
(lp830
I4411
aI3011
aI4744
asI439871
(lp831
I2892
aI2353
aI6872
asI451964
(lp832
I2824
aI3773
aI5882
asI532714
(lp833
I4257
aI1871
aI6476
asI25982
(lp834
I3854
aI4248
aI2049
asI66945
(lp835
I3894
aI4189
aI2012
asI66947
(lp836
I3652
aI3992
aI2983
asI501125
(lp837
I2648
aI2553
aI6319
asI140678
(lp838
I2456
aI3521
aI3309
asI238983
(lp839
I4275
aI2865
aI3520
asI148875
(lp840
I3361
aI3057
aI4486
asI316994
(lp841
I2873
aI2023
aI4993
asI124302
(lp842
I4321
aI3601
aI3142
asI356589
(lp843
I3959
aI3772
aI4740
asI427408
(lp844
I4412
aI2018
aI5925
asI34194
(lp845
I4499
aI3816
aI1612
asI546371
(lp846
I2364
aI2956
aI6860
asI577528
(lp847
I3657
aI1833
aI7067
asI478508
(lp848
I4129
aI2099
aI6085
asI632217
(lp849
I4375
aI2756
aI7281
asI11162
(lp850
I4858
aI2869
aI2341
asI148895
(lp851
I4291
aI2136
aI3655
asI574880
(lp852
I3352
aI3678
aI7157
asI542113
(lp853
I1919
aI2224
aI6616
asI76699
(lp854
I4494
aI4057
aI1649
asI566692
(lp855
I3113
aI1832
aI6870
asI312742
(lp856
I3546
aI3271
aI5042
asI329128
(lp857
I2717
aI3698
aI4779
asI492969
(lp858
I2182
aI2791
aI6479
asI378282
(lp859
I2734
aI3643
aI5173
asI452013
(lp860
I3214
aI3439
aI6301
asI427439
(lp861
I4524
aI3234
aI5118
asI107952
(lp862
I3484
aI2290
aI2625
asI206257
(lp863
I4238
aI2683
aI3794
asI1458
(lp864
I2950
aI3459
aI2059
asI378291
(lp865
I3417
aI3841
aI2734
asI378293
(lp866
I2165
aI3612
aI5143
asI26038
(lp867
I4516
aI3773
aI2192
asI468407
(lp868
I3755
aI1963
aI6014
asI632248
(lp869
I4380
aI2655
aI7073
asI452027
(lp870
I3815
aI3614
aI6018
asI632252
(lp871
I4307
aI2460
aI7136
asI361918
(lp872
I4590
aI2097
aI4780
asI509375
(lp873
I3401
aI2022
aI6217
asI28691
(lp874
I4822
aI3181
aI1754
asI76704
(lp875
I3362
aI2311
aI2819
asI509378
(lp876
I2925
aI1795
aI6198
asI255428
(lp877
I2410
aI3980
aI4454
asI49
(lp878
I2758
aI2994
aI1568
asI26054
(lp879
I4076
aI4232
aI2092
asI247240
(lp880
I2849
aI2838
aI4370
asI1484
(lp881
I2575
aI3309
aI1892
asI263630
(lp882
I3686
aI3716
aI4354
asI95796
(lp883
I4415
aI3836
aI2825
asI435665
(lp884
I2001
aI2690
aI5808
asI284768
(lp885
I3977
aI1964
aI4559
asI566743
(lp886
I3064
aI2110
aI6793
asI508855
(lp887
I4601
aI2293
aI3888
asI297311
(lp888
I4434
aI2466
aI4120
asI140765
(lp889
I2585
aI3518
aI3251
asI462155
(lp890
I3458
aI3307
aI6028
asI476649
(lp891
I3965
aI3670
aI5899
asI640492
(lp892
I3865
aI3005
aI5636
asI35034
(lp893
I4362
aI4084
aI1849
asI592808
(lp894
I4164
aI2539
aI6661
asI509428
(lp895
I3425
aI1886
aI6261
asI140790
(lp896
I2563
aI3714
aI3240
asI517623
(lp897
I3268
aI3671
aI6208
asI157176
(lp898
I2649
aI3556
aI3565
asI17914
(lp899
I3907
aI2539
aI1752
asI304749
(lp900
I4670
aI3247
aI4496
asI247296
(lp901
I3689
aI2823
aI4534
asI198145
(lp902
I2495
aI4023
aI3859
asI26115
(lp903
I3384
aI4052
aI2255
asI128301
(lp904
I4184
aI4090
aI3413
asI324
(lp905
I2685
aI3753
aI1555
asI16691
(lp906
I4143
aI2274
aI1888
asI140812
(lp907
I4031
aI4067
aI3512
asI296461
(lp908
I4193
aI3730
aI4467
asI149006
(lp909
I3377
aI2328
aI3425
asI222735
(lp910
I3807
aI3922
aI3890
asI630911
(lp911
I4360
aI1818
aI7128
asI76718
(lp912
I4070
aI3853
aI2506
asI192772
(lp913
I2358
aI2754
aI3689
asI599578
(lp914
I1983
aI3289
aI7037
asI509469
(lp915
I3408
aI1858
aI6312
asI312862
(lp916
I2431
aI3398
aI5040
asI484896
(lp917
I4312
aI3059
aI5773
asI122606
(lp918
I4075
aI3201
aI3060
asI308827
(lp919
I2203
aI2946
aI4991
asI438534
(lp920
I2493
aI2915
aI5730
asI247336
(lp921
I2568
aI2748
aI4477
asI59850
(lp922
I3723
aI2377
aI2209
asI542251
(lp923
I1925
aI2272
aI6750
asI11186
(lp924
I4011
aI2884
aI1937
asI17967
(lp925
I4275
aI2419
aI1744
asI532744
(lp926
I4126
aI1940
aI6640
asI198196
(lp927
I3303
aI3699
aI4156
asI247349
(lp928
I3169
aI2098
aI4357
asI583222
(lp929
I3890
aI2880
aI6520
asI241929
(lp930
I4375
aI3565
aI3837
asI460348
(lp931
I3439
aI2761
aI6406
asI319754
(lp932
I3905
aI2024
aI4695
asI1600
(lp933
I2962
aI3308
aI2088
asI140865
(lp934
I3111
aI4026
aI3203
asI296514
(lp935
I4002
aI3626
aI4534
asI370243
(lp936
I4117
aI3028
aI4878
asI624196
(lp937
I3944
aI2661
aI7238
asI256950
(lp938
I3359
aI3106
aI4224
asI579989
(lp939
I3701
aI2303
aI7020
asI16652
(lp940
I2917
aI1897
aI5441
asI443978
(lp941
I2630
aI1796
aI5763
asI19383
(lp942
I4135
aI2507
aI2342
asI67148
(lp943
I3833
aI4098
aI2028
asI173645
(lp944
I4042
aI3411
aI3294
asI67933
(lp945
I4015
aI3905
aI2200
asI333411
(lp946
I4057
aI2427
aI4891
asI509524
(lp947
I3410
aI1771
aI6296
asI263765
(lp948
I3245
aI3336
aI4430
asI411225
(lp949
I3855
aI2096
aI5294
asI18010
(lp950
I3817
aI2269
aI1771
asI173659
(lp951
I4560
aI2990
aI3651
asI239196
(lp952
I4386
aI2827
aI3884
asI58973
(lp953
I4227
aI2403
aI2303
asI50782
(lp954
I3041
aI2278
aI2530
asI8914527
(lp955
I4200
aI4057
aI3767
asI58976
(lp956
I4807
aI2701
aI2327
asI532752
(lp957
I4338
aI2017
aI6425
asI18018
(lp958
I4091
aI2360
aI1828
asI247395
(lp959
I3088
aI3946
aI4390
asI58983
(lp960
I3891
aI2374
aI2979
asI58986
(lp961
I3650
aI2407
aI2631
asI58987
(lp962
I4126
aI2425
aI2334
asI483602
(lp963
I4345
aI2115
aI7212
asI460398
(lp964
I4085
aI2556
aI5971
asI18031
(lp965
I3903
aI2621
aI1757
asI107531
(lp966
I3817
aI2432
aI3309
asI525937
(lp967
I4852
aI3408
aI3199
asI16659
(lp968
I4778
aI2288
aI2539
asI58996
(lp969
I3925
aI2249
aI2541
asI58997
(lp970
I3797
aI2415
aI2479
asI603753
(lp971
I3135
aI1990
aI7203
asI493177
(lp972
I1952
aI3175
aI7287
asI59003
(lp973
I4479
aI2701
aI2859
asI376495
(lp974
I4458
aI2585
aI5752
asI312959
(lp975
I3193
aI2648
aI5648
asI414596
(lp976
I4039
aI2740
aI5113
asI534145
(lp977
I4278
aI1897
aI6244
asI493186
(lp978
I1937
aI3525
aI6451
asI493187
(lp979
I2562
aI3605
aI6242
asI149126
(lp980
I2978
aI2257
aI3432
asI517770
(lp981
I3109
aI3443
aI6243
asI534156
(lp982
I3997
aI1757
aI6354
asI435855
(lp983
I2269
aI2408
aI5879
asI26257
(lp984
I4578
aI3617
aI2179
asI149102
(lp985
I3004
aI2658
aI3475
asI607894
(lp986
I2647
aI3060
aI7063
asI181911
(lp987
I4243
aI4215
aI3340
asI140952
(lp988
I2529
aI3558
aI3286
asI76740
(lp989
I3985
aI4059
aI3408
asI509595
(lp990
I3170
aI2188
aI6258
asI16666
(lp991
I4930
aI2971
aI2779
asI1696
(lp992
I3534
aI2875
aI2208
asI233566
(lp993
I3987
aI4004
aI3617
asI42658
(lp994
I2991
aI2903
aI2000
asI394915
(lp995
I2999
aI3378
aI5435
asI1700
(lp996
I3771
aI3611
aI2744
asI452261
(lp997
I3377
aI3531
aI6856
asI1703
(lp998
I4160
aI3375
aI2146
asI247465
(lp999
I3637
aI2289
aI3096
asI132268
(lp1000
I4976
aI2880
aI2794
asI313003
(lp1001
I2799
aI2249
aI4827
asI140973
(lp1002
I3200
aI3862
aI3363
asI624303
(lp1003
I3956
aI3016
aI7207
asI214705
(lp1004
I3508
aI2870
aI3568
asI284467
(lp1005
I4585
aI1961
aI4537
asI165557
(lp1006
I4063
aI3859
aI3460
asI313015
(lp1007
I4430
aI2054
aI5654
asI304824
(lp1008
I4585
aI3279
aI4516
asI84347
(lp1009
I4464
aI3743
aI2816
asI386752
(lp1010
I2823
aI2762
aI5390
asI444098
(lp1011
I2695
aI1911
aI5785
asI1732
(lp1012
I2798
aI3488
aI1828
asI20789
(lp1013
I5015
aI3653
aI1876
asI26310
(lp1014
I4290
aI2315
aI1518
asI493255
(lp1015
I2110
aI3345
aI6001
asI468681
(lp1016
I3796
aI1983
aI6275
asI88065
(lp1017
I4836
aI2619
aI3146
asI353998
(lp1018
I3667
aI3417
aI4739
asI444112
(lp1019
I2576
aI1835
aI6083
asI1747
(lp1020
I2797
aI3160
aI2751
asI470340
(lp1021
I3802
aI2982
aI5666
asI345813
(lp1022
I4587
aI2587
aI4686
asI50809
(lp1023
I4197
aI2984
aI2208
asI1752
(lp1024
I3042
aI3014
aI2060
asI345817
(lp1025
I3903
aI2197
aI4923
asI116442
(lp1026
I4276
aI3705
aI3352
asI403164
(lp1027
I3824
aI2998
aI5506
asI576175
(lp1028
I3413
aI3618
aI6944
asI1758
(lp1029
I2828
aI3444
aI1933
asI591584
(lp1030
I4347
aI2244
aI6876
asI26338
(lp1031
I4674
aI2845
aI2509
asI345827
(lp1032
I4041
aI2810
aI4908
asI345828
(lp1033
I4082
aI2272
aI5122
asI323878
(lp1034
I4028
aI1929
aI5690
asI444135
(lp1035
I2484
aI1982
aI5822
asI648937
(lp1036
I1900
aI2601
aI7939
asI147751
(lp1037
I3071
aI2482
aI3284
asI345836
(lp1038
I3950
aI2424
aI4939
asI526061
(lp1039
I3754
aI3031
aI5990
asI517757
(lp1040
I3119
aI3659
aI6217
asI141040
(lp1041
I3130
aI2111
aI4415
asI26353
(lp1042
I4661
aI2649
aI1910
asI149238
(lp1043
I3658
aI3010
aI3389
asI313079
(lp1044
I3713
aI2210
aI5322
asI345849
(lp1045
I4084
aI1904
aI5027
asI198395
(lp1046
I2745
aI4087
aI3757
asI395004
(lp1047
I3523
aI3670
aI5952
asI214781
(lp1048
I3267
aI2891
aI3575
asI527317
(lp1049
I3434
aI3015
aI6196
asI345857
(lp1050
I4394
aI2105
aI5021
asI399090
(lp1051
I3381
aI2399
aI5486
asI38583
(lp1052
I4972
aI3346
aI1718
asI567048
(lp1053
I3362
aI1756
aI6828
asI241964
(lp1054
I4666
aI3547
aI3738
asI141066
(lp1055
I2624
aI3743
aI3325
asI116538
(lp1056
I3672
aI4238
aI2760
asI599682
(lp1057
I2313
aI3343
aI7386
asI26382
(lp1058
I4964
aI3051
aI2100
asI247567
(lp1059
I3052
aI2060
aI4359
asI175732
(lp1060
I4578
aI3358
aI3507
asI493330
(lp1061
I2189
aI3773
aI5810
asI345877
(lp1062
I3987
aI2045
aI4997
asI67351
(lp1063
I3703
aI4257
aI2231
asI18200
(lp1064
I4249
aI2282
aI1677
asI592544
(lp1065
I4172
aI2857
aI6805
asI157468
(lp1066
I3299
aI4209
aI3432
asI1824
(lp1067
I4326
aI4061
aI3108
asI493345
(lp1068
I1991
aI3460
aI6141
asI547803
(lp1069
I3280
aI2773
aI7606
asI91941
(lp1070
I2775
aI4112
aI2882
asI313126
(lp1071
I2471
aI3606
aI5693
asI74033
(lp1072
I4474
aI3743
aI2495
asI313128
(lp1073
I2339
aI3479
aI5483
asI313130
(lp1074
I2505
aI3855
aI5187
asI313132
(lp1075
I2314
aI3376
aI5101
asI313133
(lp1076
I2615
aI3811
aI5232
asI18224
(lp1077
I4903
aI2876
aI2820
asI313138
(lp1078
I2490
aI3544
aI5023
asI319795
(lp1079
I3508
aI1961
aI4930
asI280372
(lp1080
I3440
aI3948
aI4123
asI354101
(lp1081
I4096
aI3131
aI4744
asI247606
(lp1082
I2250
aI2562
aI4503
asI26423
(lp1083
I4476
aI2666
aI1519
asI493370
(lp1084
I1906
aI3679
aI6055
asI255804
(lp1085
I3149
aI3424
aI5011
asI603786
(lp1086
I2889
aI1811
aI7494
asI618805
(lp1087
I3540
aI3533
aI6822
asI40979
(lp1088
I4870
aI3410
aI1733
asI318432
(lp1089
I3276
aI2137
aI4794
asI141122
(lp1090
I2612
aI4007
aI3194
asI360953
(lp1091
I4592
aI1999
aI4743
asI468805
(lp1092
I3790
aI2620
aI5723
asI476998
(lp1093
I3803
aI3578
aI6117
asI26439
(lp1094
I4746
aI2528
aI2667
asI26440
(lp1095
I4442
aI2687
aI2339
asI436042
(lp1096
I2165
aI2202
aI6212
asI532791
(lp1097
I4149
aI1772
aI6451
asI436044
(lp1098
I2082
aI2295
aI5934
asI412782
(lp1099
I4110
aI1923
aI5341
asI485199
(lp1100
I4284
aI3113
aI6028
asI509777
(lp1101
I3399
aI2013
aI6330
asI84352
(lp1102
I4966
aI3720
aI2304
asI436051
(lp1103
I2540
aI2863
aI5864
asI475795
(lp1104
I3962
aI3645
aI5693
asI26453
(lp1105
I4376
aI2450
aI2061
asI667834
(lp1106
I3936
aI2686
aI7789
asI599896
(lp1107
I1915
aI3157
aI7095
asI358031
(lp1108
I4106
aI3776
aI4727
asI1884
(lp1109
I2695
aI3623
aI2000
asI532794
(lp1110
I4351
aI1917
aI6411
asI436062
(lp1111
I2451
aI2654
aI6523
asI59231
(lp1112
I4425
aI2418
aI2178
asI59232
(lp1113
I3680
aI2323
aI2061
asI517985
(lp1114
I2981
aI3664
aI6178
asI18274
(lp1115
I4672
aI2713
aI2299
asI378724
(lp1116
I2160
aI3773
aI5213
asI26471
(lp1117
I4412
aI2625
aI2910
asI1896
(lp1118
I4404
aI2371
aI1940
asI44007
(lp1119
I3405
aI3025
aI2514
asI452460
(lp1120
I2594
aI3658
aI6040
asI477038
(lp1121
I3839
aI3746
aI5957
asI436081
(lp1122
I2703
aI2315
aI6094
asI26482
(lp1123
I4518
aI2286
aI2024
asI198515
(lp1124
I4287
aI2659
aI4344
asI345972
(lp1125
I3585
aI2169
aI5280
asI452469
(lp1126
I2849
aI3487
aI5907
asI26486
(lp1127
I4110
aI2347
aI2178
asI173945
(lp1128
I4213
aI2939
aI3268
asI582727
(lp1129
I4286
aI2947
aI7248
asI157564
(lp1130
I3097
aI4149
aI3312
asI485245
(lp1131
I4303
aI2992
aI5806
asI436097
(lp1132
I3532
aI2678
aI6216
asI370562
(lp1133
I2506
aI2527
aI5013
asI370563
(lp1134
I2090
aI2549
aI5004
asI100228
(lp1135
I4834
aI3263
aI3081
asI255879
(lp1136
I2821
aI3921
aI4424
asI535532
(lp1137
I4379
aI2442
aI6448
asI599948
(lp1138
I1904
aI2967
aI7129
asI67469
(lp1139
I3767
aI4157
aI2231
asI287577
(lp1140
I3773
aI2999
aI4315
asI42895
(lp1141
I4331
aI3890
aI2340
asI460689
(lp1142
I3196
aI3179
aI5719
asI34706
(lp1143
I4104
aI4268
aI1745
asI493460
(lp1144
I1986
aI3643
aI6121
asI444310
(lp1145
I2789
aI1856
aI5943
asI305049
(lp1146
I2127
aI2536
aI4517
asI147474
(lp1147
I4476
aI2744
aI3110
asI107541
(lp1148
I4246
aI3417
aI2828
asI1949
(lp1149
I4007
aI4032
aI1940
asI346014
(lp1150
I4542
aI2148
aI4919
asI575391
(lp1151
I3045
aI3517
aI6324
asI247712
(lp1152
I3060
aI3220
aI4391
asI460705
(lp1153
I4162
aI2620
aI6605
asI669144
(lp1154
I4053
aI3141
aI7763
asI255907
(lp1155
I4343
aI2102
aI4610
asI346020
(lp1156
I4335
aI2971
aI4622
asI8906664
(lp1157
I2558
aI4208
aI1525
asI51114
(lp1158
I3498
aI3254
aI2120
asI74055
(lp1159
I4507
aI3601
aI2495
asI92078
(lp1160
I2790
aI3984
aI3086
asI411567
(lp1161
I4292
aI2018
aI5500
asI26544
(lp1162
I4913
aI3265
aI2927
asI42929
(lp1163
I2566
aI3206
aI2199
asI587419
(lp1164
I3528
aI3617
aI6734
asI75700
(lp1165
I4500
aI3664
aI2300
asI186014
(lp1166
I4818
aI3070
aI3444
asI493495
(lp1167
I2459
aI3342
aI6589
asI526265
(lp1168
I4096
aI2843
aI6710
asI387002
(lp1169
I3079
aI2583
aI5875
asI354236
(lp1170
I4054
aI3415
aI4817
asI329661
(lp1171
I2812
aI3772
aI4843
asI526271
(lp1172
I4275
aI3188
aI6845
asI526272
(lp1173
I3795
aI2807
aI6414
asI485346
(lp1174
I4125
aI3225
aI5960
asI108482
(lp1175
I4193
aI2293
aI2808
asI526275
(lp1176
I3970
aI2938
aI7025
asI542661
(lp1177
I1927
aI2367
aI6847
asI681927
(lp1178
I3023
aI4058
aI2153
asI442700
(lp1179
I3416
aI2434
aI6046
asI681930
(lp1180
I3672
aI3950
aI2341
asI124876
(lp1181
I4461
aI3961
aI2970
asI567245
(lp1182
I2914
aI1996
aI6892
asI108494
(lp1183
I3957
aI2262
aI2838
asI239567
(lp1184
I4516
aI2971
aI3562
asI591824
(lp1185
I3978
aI2358
aI6979
asI318456
(lp1186
I2777
aI1965
aI4803
asI468948
(lp1187
I3435
aI2512
aI6203
asI69966
(lp1188
I4240
aI2295
aI2117
asI591830
(lp1189
I4373
aI2262
aI6823
asI141271
(lp1190
I2384
aI3494
aI3442
asI600024
(lp1191
I2277
aI3066
aI7260
asI190116
(lp1192
I4772
aI3662
aI3308
asI583642
(lp1193
I3576
aI2995
aI6761
asI444379
(lp1194
I2618
aI1788
aI5865
asI171002
(lp1195
I4843
aI2589
aI3494
asI509605
(lp1196
I3182
aI1854
aI6286
asI518114
(lp1197
I3091
aI3030
aI6776
asI108515
(lp1198
I4294
aI2339
aI2888
asI444393
(lp1199
I3718
aI2858
aI5603
asI280554
(lp1200
I3866
aI3847
aI4348
asI616429
(lp1201
I3545
aI3082
aI7326
asI23549
(lp1202
I3714
aI3426
aI4566
asI34800
(lp1203
I4430
aI4261
aI1771
asI280561
(lp1204
I3529
aI3907
aI4278
asI609278
(lp1205
I2478
aI2794
aI7360
asI591862
(lp1206
I4312
aI2428
aI6983
asI247799
(lp1207
I3450
aI2322
aI4619
asI591864
(lp1208
I4379
aI2358
aI7022
asI624965
(lp1209
I4377
aI2742
aI7520
asI171007
(lp1210
I4170
aI2307
aI3368
asI38570
(lp1211
I4466
aI3264
aI5432
asI411646
(lp1212
I3649
aI2554
aI5272
asI600063
(lp1213
I2295
aI3183
aI7213
asI2048
(lp1214
I3147
aI3072
aI2393
asI310272
(lp1215
I2778
aI3291
aI4841
asI124931
(lp1216
I4920
aI3576
aI2924
asI272388
(lp1217
I3971
aI2226
aI4387
asI393558
(lp1218
I3544
aI3810
aI5296
asI149510
(lp1219
I2929
aI2338
aI3565
asI8931336
(lp1220
I4396
aI2806
aI4908
asI370699
(lp1221
I2064
aI2866
aI5137
asI436239
(lp1222
I4005
aI2268
aI6568
asI509968
(lp1223
I3305
aI1834
aI6445
asI419857
(lp1224
I3903
aI3535
aI5237
asI682002
(lp1225
I4626
aI2868
aI2643
asI43027
(lp1226
I2896
aI2965
aI2250
asI542740
(lp1227
I2901
aI2160
aI6724
asI477206
(lp1228
I3628
aI3713
aI5990
asI141335
(lp1229
I2431
aI3316
aI3361
asI629764
(lp1230
I4279
aI2080
aI7419
asI124956
(lp1231
I4191
aI3377
aI2884
asI403485
(lp1232
I3756
aI2806
aI5783
asI436254
(lp1233
I2171
aI2747
aI5981
asI366478
(lp1234
I4518
aI3032
aI4990
asI403492
(lp1235
I4297
aI2346
aI5995
asI68614
(lp1236
I3902
aI4046
aI2344
asI354342
(lp1237
I4243
aI3203
aI4801
asI313383
(lp1238
I2431
aI3880
aI4578
asI256042
(lp1239
I2724
aI2039
aI4005
asI252935
(lp1240
I2739
aI3817
aI4122
asI469037
(lp1241
I4467
aI2900
aI5933
asI297006
(lp1242
I4497
aI2096
aI4054
asI149551
(lp1243
I3243
aI2595
aI3516
asI108592
(lp1244
I3950
aI2328
aI2882
asI458340
(lp1245
I3425
aI2846
aI5772
asI313398
(lp1246
I2192
aI3572
aI4545
asI493623
(lp1247
I2192
aI3678
aI6193
asI18488
(lp1248
I4596
aI2574
aI2812
asI589994
(lp1249
I4282
aI2263
aI6987
asI673854
(lp1250
I4373
aI3058
aI7844
asI469055
(lp1251
I4452
aI2924
aI5844
asI469057
(lp1252
I5005
aI3737
aI2046
asI436292
(lp1253
I2085
aI2550
aI5974
asI436295
(lp1254
I2823
aI2625
aI5888
asI317111
(lp1255
I3764
aI2132
aI4744
asI444492
(lp1256
I2481
aI1821
aI5902
asI10319
(lp1257
I4170
aI3209
aI1995
asI256080
(lp1258
I2756
aI2097
aI4004
asI600145
(lp1259
I1922
aI3053
aI7384
asI542802
(lp1260
I1904
aI2475
aI6810
asI575571
(lp1261
I3018
aI3690
aI6694
asI10324
(lp1262
I3511
aI3471
aI1704
asI469078
(lp1263
I4295
aI2882
aI6537
asI682071
(lp1264
I2949
aI2652
aI5566
asI395352
(lp1265
I2929
aI3729
aI5495
asI622948
(lp1266
I4299
aI2157
aI7760
asI370779
(lp1267
I2480
aI2611
aI5344
asI510044
(lp1268
I3393
aI1788
aI6610
asI444509
(lp1269
I2516
aI1842
aI5844
asI55446
(lp1270
I4346
aI3262
aI2270
asI360805
(lp1271
I4606
aI2114
aI4655
asI330768
(lp1272
I3863
aI2303
aI5107
asI297060
(lp1273
I4266
aI1985
aI4006
asI573798
(lp1274
I3387
aI2860
aI6855
asI2150
(lp1275
I4135
aI3581
aI4408
asI436327
(lp1276
I3994
aI2819
aI6077
asI247913
(lp1277
I2878
aI2680
aI4514
asI247914
(lp1278
I4219
aI2571
aI4582
asI141420
(lp1279
I2488
aI3521
aI3362
asI2158
(lp1280
I2709
aI3644
aI1820
asI444527
(lp1281
I2650
aI2176
aI6205
asI256112
(lp1282
I2821
aI1893
aI5459
asI2161
(lp1283
I4556
aI3009
aI3454
asI436339
(lp1284
I1986
aI2531
aI5908
asI542836
(lp1285
I2117
aI2209
aI6790
asI10358
(lp1286
I4256
aI3359
aI1927
asI2167
(lp1287
I2762
aI3704
aI1627
asI2168
(lp1288
I2555
aI3554
aI2033
asI395385
(lp1289
I3267
aI3752
aI5424
asI673914
(lp1290
I4368
aI3180
aI7849
asI26747
(lp1291
I4501
aI2866
aI3253
asI10364
(lp1292
I4191
aI3184
aI2179
asI411773
(lp1293
I3635
aI1930
aI5231
asI444542
(lp1294
I2651
aI1946
aI6318
asI370815
(lp1295
I2291
aI2618
aI5313
asI104128
(lp1296
I3207
aI4120
aI3065
asI272514
(lp1297
I4301
aI2517
aI4627
asI493699
(lp1298
I2166
aI3512
aI6287
asI313477
(lp1299
I2112
aI3743
aI4587
asI305286
(lp1300
I2204
aI2442
aI4573
asI2183
(lp1301
I2966
aI3246
aI2342
asI2186
(lp1302
I2720
aI3829
aI1546
asI269309
(lp1303
I3001
aI3765
aI5008
asI452749
(lp1304
I3004
aI3461
aI6716
asI223375
(lp1305
I3590
aI2712
aI4684
asI395409
(lp1306
I3932
aI3169
aI6735
asI2198
(lp1307
I4079
aI3273
aI2292
asI452759
(lp1308
I2924
aI3762
aI5900
asI444572
(lp1309
I3355
aI2014
aI6166
asI436381
(lp1310
I4089
aI2809
aI6675
asI444436
(lp1311
I3093
aI1832
aI6393
asI407904
(lp1312
I3781
aI3005
aI5384
asI108704
(lp1313
I3784
aI2671
aI2823
asI346274
(lp1314
I4239
aI2044
aI4646
asI2211
(lp1315
I3307
aI3451
aI2710
asI100517
(lp1316
I3370
aI2877
aI3211
asI346279
(lp1317
I3816
aI2087
aI4681
asI2216
(lp1318
I3403
aI3479
aI2197
asI2219
(lp1319
I3138
aI3959
aI2958
asI157868
(lp1320
I3143
aI4217
aI3453
asI370861
(lp1321
I2258
aI2670
aI5113
asI436400
(lp1322
I4263
aI2574
aI6603
asI501940
(lp1323
I2961
aI2068
aI6623
asI149686
(lp1324
I4007
aI3307
aI3206
asI67273
(lp1325
I4297
aI4224
aI2137
asI24079
(lp1326
I4454
aI3890
aI2869
asI574827
(lp1327
I3683
aI3304
aI6908
asI179838
(lp1328
I4296
aI4039
aI3057
asI518335
(lp1329
I3867
aI3525
aI6451
asI238807
(lp1330
I4651
aI2837
aI3748
asI436418
(lp1331
I2683
aI2744
aI5901
asI296651
(lp1332
I4107
aI3565
aI4558
asI313540
(lp1333
I2844
aI3789
aI4750
asI280773
(lp1334
I3463
aI3597
aI4439
asI624838
(lp1335
I3564
aI2490
aI7395
asI43207
(lp1336
I2690
aI3353
aI2526
asI805065
(lp1337
I3471
aI2049
aI4017
asI223434
(lp1338
I3926
aI2242
aI3767
asI354513
(lp1339
I4259
aI3296
aI4763
asI248018
(lp1340
I3152
aI3039
aI3662
asI223444
(lp1341
I4222
aI2189
aI3682
asI308942
(lp1342
I2710
aI2156
aI5278
asI24444
(lp1343
I4214
aI3893
aI2094
asI59542
(lp1344
I3837
aI2584
aI2118
asI330789
(lp1345
I3471
aI2029
aI5023
asI248033
(lp1346
I2638
aI2654
aI4595
asI2275
(lp1347
I4349
aI3994
aI3389
asI436452
(lp1348
I2253
aI2327
aI6130
asI535590
(lp1349
I4265
aI2747
aI6100
asI107552
(lp1350
I4059
aI3175
aI3066
asI354536
(lp1351
I4505
aI2785
aI4875
asI315772
(lp1352
I2235
aI3798
aI4975
asI248042
(lp1353
I2749
aI2898
aI4523
asI280811
(lp1354
I3869
aI3797
aI4458
asI416637
(lp1355
I4197
aI2816
aI5413
asI186066
(lp1356
I4549
aI3227
aI3610
asI387312
(lp1357
I2770
aI2787
aI5524
asI468691
(lp1358
I3665
aI2039
aI6315
asI352638
(lp1359
I4054
aI3085
aI4564
asI100598
(lp1360
I4720
aI3674
aI3322
asI141559
(lp1361
I3956
aI4091
aI3389
asI430108
(lp1362
I4424
aI2657
aI5438
asI248059
(lp1363
I2690
aI2290
aI4988
asI248061
(lp1364
I2636
aI2732
aI4507
asI248065
(lp1365
I2218
aI2475
aI5249
asI346370
(lp1366
I4503
aI2241
aI4645
asI248070
(lp1367
I2458
aI2790
aI4516
asI532756
(lp1368
I4087
aI1786
aI6673
asI159109
(lp1369
I4033
aI2316
aI3132
asI534185
(lp1370
I4064
aI1813
aI6272
asI542986
(lp1371
I1935
aI2556
aI6770
asI345815
(lp1372
I4379
aI1982
aI4916
asI542988
(lp1373
I2187
aI2400
aI6877
asI305421
(lp1374
I3150
aI3828
aI4749
asI43278
(lp1375
I4003
aI4111
aI2225
asI346384
(lp1376
I4496
aI2865
aI4769
asI305425
(lp1377
I3817
aI2026
aI4756
asI35090
(lp1378
I4476
aI4248
aI1899
asI242051
(lp1379
I4506
aI2718
aI4942
asI379157
(lp1380
I2184
aI3858
aI5295
asI395544
(lp1381
I4118
aI2480
aI5354
asI551193
(lp1382
I1925
aI3646
aI6975
asI395546
(lp1383
I3656
aI2387
aI5264
asI71593
(lp1384
I5000
aI3188
aI2381
asI395548
(lp1385
I3374
aI1999
aI5419
asI592157
(lp1386
I4170
aI2626
aI6637
asI452895
(lp1387
I2729
aI3733
aI5995
asI395552
(lp1388
I4306
aI2138
aI5476
asI624929
(lp1389
I4354
aI2709
aI7561
asI518436
(lp1390
I3886
aI3532
aI6074
asI3049765
(lp1391
I2547
aI3620
aI3221
asI43303
(lp1392
I2525
aI2809
aI2186
asI403752
(lp1393
I3629
aI3365
aI6013
asI682281
(lp1394
I4305
aI3457
aI1873
asI141610
(lp1395
I2661
aI3572
aI3440
asI395564
(lp1396
I3625
aI1951
aI5393
asI280880
(lp1397
I3942
aI3102
aI4581
asI529302
(lp1398
I3479
aI3548
aI6808
asI174386
(lp1399
I4159
aI3224
aI3117
asI125236
(lp1400
I4685
aI3374
aI2988
asI116446
(lp1401
I3789
aI3707
aI2911
asI418185
(lp1402
I3656
aI3398
aI5109
asI124840
(lp1403
I4456
aI3710
aI2844
asI477499
(lp1404
I3852
aI3000
aI6780
asI551228
(lp1405
I2213
aI3681
aI7069
asI141629
(lp1406
I2727
aI4089
aI3311
asI436543
(lp1407
I2307
aI3205
aI5713
asI518465
(lp1408
I3094
aI3446
aI6412
asI256323
(lp1409
I3739
aI2209
aI4351
asI334783
(lp1410
I3872
aI2955
aI5190
asI2374
(lp1411
I3799
aI2447
aI1729
asI543050
(lp1412
I2116
aI2636
aI6854
asI371767
(lp1413
I3627
aI2099
aI5343
asI411982
(lp1414
I3926
aI1999
aI5328
asI297295
(lp1415
I4468
aI2315
aI4602
asI122013
(lp1416
I4762
aI3470
aI3008
asI575826
(lp1417
I3147
aI3660
aI6739
asI313683
(lp1418
I2685
aI3708
aI4578
asI133470
(lp1419
I4944
aI3516
aI2688
asI280917
(lp1420
I3830
aI3490
aI4555
asI633174
(lp1421
I4090
aI2702
aI7284
asI674136
(lp1422
I4289
aI2468
aI7642
asI248153
(lp1423
I2292
aI3470
aI4409
asI10586
(lp1424
I4645
aI3137
aI1731
asI352655
(lp1425
I3936
aI3199
aI4665
asI269370
(lp1426
I2802
aI3821
aI4491
asI141662
(lp1427
I2414
aI3377
aI3494
asI665951
(lp1428
I3979
aI1971
aI7660
asI674144
(lp1429
I4340
aI3147
aI7606
asI665953
(lp1430
I3867
aI1978
aI7868
asI519227
(lp1431
I3281
aI3662
aI6627
asI256356
(lp1432
I4277
aI2755
aI5612
asI136934
(lp1433
I4527
aI3728
aI3069
asI379239
(lp1434
I2030
aI3772
aI5239
asI674152
(lp1435
I4315
aI2993
aI7651
asI543082
(lp1436
I2145
aI2259
aI6752
asI247527
(lp1437
I2235
aI3025
aI4419
asI264557
(lp1438
I3035
aI3417
aI4202
asI674158
(lp1439
I4341
aI2845
aI7639
asI293867
(lp1440
I3909
aI3792
aI4403
asI497384
(lp1441
I2760
aI2025
aI6265
asI543093
(lp1442
I2063
aI2195
aI6767
asI354678
(lp1443
I3975
aI3269
aI4807
asI248183
(lp1444
I2214
aI2691
aI4510
asI363775
(lp1445
I4545
aI2743
aI4879
asI469175
(lp1446
I3897
aI2403
aI5908
asI43388
(lp1447
I3023
aI3062
aI2314
asI502141
(lp1448
I2659
aI2563
aI6470
asI43390
(lp1449
I4508
aI3805
aI2445
asI436607
(lp1450
I4352
aI2066
aI6986
asI152839
(lp1451
I3336
aI3721
aI3034
asI10625
(lp1452
I3576
aI2758
aI2800
asI293910
(lp1453
I4178
aI3536
aI4268
asI551301
(lp1454
I2301
aI3580
aI7011
asI2438
(lp1455
I2703
aI3875
aI1595
asI84359
(lp1456
I4847
aI3395
aI2380
asI104284
(lp1457
I3240
aI4181
aI3074
asI313737
(lp1458
I2493
aI3726
aI4636
asI493962
(lp1459
I2009
aI3491
aI6150
asI444816
(lp1460
I2553
aI1860
aI5960
asI92562
(lp1461
I4537
aI3721
aI3140
asI84371
(lp1462
I5011
aI3503
aI2497
asI84372
(lp1463
I5004
aI3663
aI2393
asI84374
(lp1464
I5007
aI3492
aI2378
asI84375
(lp1465
I4859
aI3604
aI2502
asI35225
(lp1466
I4149
aI4247
aI1897
asI420250
(lp1467
I4211
aI3153
aI5539
asI181999
(lp1468
I4129
aI4198
aI3429
asI18844
(lp1469
I3756
aI2428
aI1890
asI122929
(lp1470
I4223
aI3046
aI3018
asI10655
(lp1471
I4079
aI3282
aI2116
asI38642
(lp1472
I4899
aI3081
aI2075
asI43428
(lp1473
I3501
aI2807
aI2599
asI256425
(lp1474
I3070
aI2151
aI4428
asI480725
(lp1475
I4464
aI2275
aI5870
asI35244
(lp1476
I4516
aI3768
aI1701
asI395693
(lp1477
I3218
aI2199
aI5156
asI289198
(lp1478
I3997
aI3002
aI4412
asI420271
(lp1479
I4072
aI2975
aI5490
asI256432
(lp1480
I3053
aI2676
aI4383
asI289202
(lp1481
I4253
aI2628
aI4377
asI240051
(lp1482
I4757
aI2943
aI3639
asI387508
(lp1483
I3042
aI2741
aI5329
asI586565
(lp1484
I3475
aI3689
aI6681
asI128836
(lp1485
I4973
aI2316
aI2675
asI272828
(lp1486
I3567
aI1993
aI4455
asI444863
(lp1487
I2626
aI1812
aI5961
asI248256
(lp1488
I3359
aI3246
aI4854
asI396790
(lp1489
I3272
aI1913
aI5289
asI10693
(lp1490
I4053
aI2333
aI3712
asI92618
(lp1491
I2886
aI4140
aI2781
asI182731
(lp1492
I4852
aI2306
aI3474
asI387532
(lp1493
I2439
aI2991
aI6910
asI14035
(lp1494
I3871
aI3893
aI1694
asI240957
(lp1495
I4413
aI2643
aI3801
asI494032
(lp1496
I2906
aI3625
aI6422
asI182737
(lp1497
I4659
aI2288
aI3522
asI2515
(lp1498
I3605
aI3783
aI1863
asI600533
(lp1499
I1895
aI3234
aI7340
asI182743
(lp1500
I4818
aI2500
aI3316
asI551384
(lp1501
I2043
aI3471
aI7144
asI424027
(lp1502
I4313
aI2087
aI5453
asI256474
(lp1503
I4548
aI1958
aI4644
asI540466
(lp1504
I4286
aI3159
aI6300
asI182748
(lp1505
I4855
aI2450
aI3343
asI510431
(lp1506
I3362
aI1801
aI6452
asI117216
(lp1507
I3723
aI3905
aI3022
asI349719
(lp1508
I4295
aI2946
aI4690
asI8931810
(lp1509
I2156
aI2778
aI7449
asI403939
(lp1510
I4073
aI2660
aI5656
asI100836
(lp1511
I3111
aI3288
aI2706
asI296326
(lp1512
I3971
aI3276
aI4624
asI68071
(lp1513
I3943
aI3815
aI2281
asI346600
(lp1514
I3906
aI1953
aI4801
asI395754
(lp1515
I3445
aI1952
aI5085
asI551405
(lp1516
I2333
aI3653
aI7066
asI248304
(lp1517
I2272
aI2858
aI4976
asI314451
(lp1518
I4137
aI2296
aI5241
asI518644
(lp1519
I2928
aI3536
aI6329
asI631849
(lp1520
I4325
aI2608
aI7353
asI180925
(lp1521
I4045
aI4125
aI3284
asI543223
(lp1522
I2240
aI2220
aI6854
asI371192
(lp1523
I2433
aI2794
aI5194
asI379385
(lp1524
I2655
aI3645
aI5765
asI567803
(lp1525
I3312
aI2186
aI6961
asI371196
(lp1526
I2273
aI2667
aI5211
asI502270
(lp1527
I2847
aI2505
aI6477
asI134229
(lp1528
I4672
aI3543
aI2504
asI666115
(lp1529
I3535
aI2074
aI7751
asI551428
(lp1530
I2519
aI3626
aI6846
asI494085
(lp1531
I2120
aI3597
aI6244
asI79465
(lp1532
I4706
aI2667
aI2018
asI125448
(lp1533
I4728
aI2622
aI3142
asI92681
(lp1534
I2777
aI4169
aI2739
asI518666
(lp1535
I3175
aI3524
aI6435
asI248331
(lp1536
I2579
aI2679
aI4573
asI26313
(lp1537
I4085
aI2312
aI1856
asI18957
(lp1538
I3775
aI2730
aI1911
asI371214
(lp1539
I2389
aI3146
aI5317
asI182799
(lp1540
I4669
aI2417
aI3665
asI371217
(lp1541
I2274
aI2990
aI5614
asI379410
(lp1542
I2403
aI3838
aI5267
asI92691
(lp1543
I2852
aI4050
aI2741
asI313876
(lp1544
I2481
aI3703
aI4803
asI248341
(lp1545
I2305
aI3157
aI4269
asI363032
(lp1546
I4371
aI3243
aI4677
asI330267
(lp1547
I3900
aI2800
aI5065
asI43550
(lp1548
I2551
aI3331
aI2215
asI71429
(lp1549
I4402
aI3091
aI2081
asI592416
(lp1550
I4104
aI2361
aI6686
asI494113
(lp1551
I1903
aI3207
aI6179
asI289316
(lp1552
I4229
aI2887
aI4425
asI666149
(lp1553
I3573
aI1951
aI7614
asI158248
(lp1554
I2940
aI4199
aI3479
asI199209
(lp1555
I2697
aI3590
aI4297
asI436778
(lp1556
I2998
aI2595
aI5957
asI71431
(lp1557
I4924
aI3346
aI2887
asI223791
(lp1558
I4311
aI2242
aI3660
asI166449
(lp1559
I3799
aI1961
aI5518
asI551475
(lp1560
I1961
aI3609
aI7069
asI371252
(lp1561
I2315
aI2449
aI5177
asI608821
(lp1562
I3831
aI2641
aI7600
asI379447
(lp1563
I2198
aI3517
aI5443
asI371257
(lp1564
I2390
aI2446
aI5182
asI510523
(lp1565
I3355
aI1841
aI6456
asI297420
(lp1566
I4641
aI2809
aI4471
asI182845
(lp1567
I4759
aI2767
aI3587
asI526911
(lp1568
I3884
aI3092
aI6209
asI256578
(lp1569
I2890
aI2280
aI4165
asI166468
(lp1570
I3339
aI3112
aI3683
asI412231
(lp1571
I3759
aI2411
aI5268
asI559688
(lp1572
I2611
aI2808
aI6868
asI518731
(lp1573
I3018
aI3394
aI6419
asI494156
(lp1574
I2168
aI3433
aI6458
asI211968
(lp1575
I4079
aI2331
aI3655
asI38669
(lp1576
I4961
aI3108
aI2297
asI379474
(lp1577
I2498
aI3871
aI5372
asI367715
(lp1578
I4591
aI3200
aI4629
asI456462
(lp1579
I3503
aI2801
aI5620
asI141913
(lp1580
I2399
aI3738
aI3331
asI313946
(lp1581
I2568
aI3631
aI4671
asI289371
(lp1582
I4237
aI3038
aI4406
asI510563
(lp1583
I3677
aI1764
aI6912
asI182884
(lp1584
I4728
aI2595
aI3496
asI576102
(lp1585
I3515
aI3643
aI6725
asI51815
(lp1586
I2831
aI2787
aI3589
asI543342
(lp1587
I2171
aI2201
aI6815
asI141936
(lp1588
I3321
aI4217
aI3381
asI109169
(lp1589
I4809
aI3056
aI3029
asI616884
(lp1590
I3755
aI3008
aI7568
asI431077
(lp1591
I4251
aI2635
aI5708
asI423993
(lp1592
I4249
aI1821
aI5512
asI59010
(lp1593
I4841
aI3108
aI3075
asI232553
(lp1594
I4014
aI3949
aI3911
asI297593
(lp1595
I4494
aI2159
aI4403
asI232536
(lp1596
I4247
aI4078
aI3938
asI494206
(lp1597
I1991
aI3438
aI6391
asI2687
(lp1598
I2775
aI3542
aI2019
asI471983
(lp1599
I4115
aI3026
aI6053
asI593425
(lp1600
I4308
aI2392
aI6896
asI436874
(lp1601
I3426
aI2356
aI6369
asI158348
(lp1602
I3659
aI3969
aI3477
asI307650
(lp1603
I4049
aI2727
aI4973
asI313999
(lp1604
I2388
aI3812
aI4658
asI43665
(lp1605
I4092
aI3690
aI2392
asI494226
(lp1606
I1929
aI3558
aI6223
asI557507
(lp1607
I3549
aI3226
aI7552
asI293604
(lp1608
I3945
aI3853
aI4404
asI273046
(lp1609
I4599
aI2403
aI4854
asI612121
(lp1610
I3933
aI2010
aI7652
asI84380
(lp1611
I4998
aI3720
aI2426
asI551580
(lp1612
I1909
aI3151
aI7163
asI387741
(lp1613
I2504
aI2224
aI6196
asI256672
(lp1614
I3331
aI2593
aI4328
asI19108
(lp1615
I4055
aI2830
aI1911
asI551590
(lp1616
I2973
aI3385
aI6982
asI305833
(lp1617
I3031
aI2028
aI4912
asI625322
(lp1618
I4289
aI2322
aI7796
asI625323
(lp1619
I4034
aI3150
aI7606
asI551596
(lp1620
I2703
aI1852
aI7077
asI355442
(lp1621
I4062
aI2932
aI4922
asI494255
(lp1622
I2664
aI3176
aI6453
asI28700
(lp1623
I5017
aI3468
aI2353
asI142003
(lp1624
I2640
aI3864
aI3358
asI551607
(lp1625
I2819
aI1978
aI5851
asI612127
(lp1626
I3012
aI2191
aI7503
asI92861
(lp1627
I2561
aI4210
aI2848
asI625343
(lp1628
I3549
aI3173
aI7461
asI314048
(lp1629
I3418
aI3902
aI4788
asI273089
(lp1630
I3354
aI2302
aI4502
asI84751
(lp1631
I5007
aI3564
aI2101
asI568003
(lp1632
I3221
aI2553
aI7188
asI633540
(lp1633
I4382
aI2358
aI7339
asI551621
(lp1634
I3109
aI1968
aI7105
asI387782
(lp1635
I2870
aI2265
aI5659
asI568007
(lp1636
I2946
aI2369
aI6914
asI142024
(lp1637
I2459
aI3273
aI3529
asI551625
(lp1638
I2665
aI1805
aI6947
asI76490
(lp1639
I4846
aI3726
aI2573
asI232567
(lp1640
I4201
aI3781
aI4037
asI445133
(lp1641
I2977
aI2125
aI6460
asI10961
(lp1642
I4131
aI3356
aI2081
asI445140
(lp1643
I2536
aI2111
aI6726
asI10965
(lp1644
I3867
aI2662
aI1900
asI371414
(lp1645
I4160
aI2909
aI5220
asI584407
(lp1646
I3542
aI2853
aI6831
asI494296
(lp1647
I2052
aI3515
aI6252
asI186148
(lp1648
I4825
aI3043
aI3390
asI43738
(lp1649
I4715
aI3366
aI2677
asI551643
(lp1650
I2629
aI1856
aI7005
asI551644
(lp1651
I2532
aI1790
aI6969
asI338653
(lp1652
I3840
aI2986
aI5144
asI494302
(lp1653
I1970
aI3651
aI6203
asI600800
(lp1654
I2546
aI2866
aI7232
asI76923
(lp1655
I3957
aI3724
aI5991
asI510692
(lp1656
I4091
aI2262
aI6499
asI436965
(lp1657
I2297
aI2363
aI6049
asI757337
(lp1658
I4483
aI2920
aI2995
asI551658
(lp1659
I2653
aI1816
aI7010
asI436971
(lp1660
I1920
aI2242
aI6272
asI379628
(lp1661
I2549
aI3494
aI5776
asI19183
(lp1662
I3764
aI2621
aI2283
asI139731
(lp1663
I4089
aI3999
aI3671
asI453364
(lp1664
I2744
aI3499
aI6029
asI453365
(lp1665
I3426
aI3572
aI6600
asI436982
(lp1666
I2338
aI2279
aI6026
asI577404
(lp1667
I3799
aI1784
aI6836
asI158456
(lp1668
I3314
aI4108
aI3621
asI609017
(lp1669
I2776
aI2889
aI7384
asI240379
(lp1670
I4611
aI2907
aI3752
asI3771132
(lp1671
I3834
aI3535
aI3593
asI338685
(lp1672
I4278
aI2825
aI5232
asI305920
(lp1673
I2918
aI3475
aI5255
asI338689
(lp1674
I3568
aI3413
aI4967
asI535300
(lp1675
I4301
aI2360
aI6026
asI543493
(lp1676
I4024
aI2421
aI7092
asI314118
(lp1677
I2162
aI3696
aI4663
asI665956
(lp1678
I4328
aI2147
aI7806
asI533111
(lp1679
I4303
aI2048
aI6278
asI371469
(lp1680
I3493
aI2353
aI5292
asI92943
(lp1681
I2907
aI4182
aI2808
asI619856
(lp1682
I3755
aI3403
aI7288
asI4568
(lp1683
I2892
aI3351
aI1931
asI224018
(lp1684
I4146
aI2277
aI3743
asI518931
(lp1685
I3150
aI3630
aI6442
asI396053
(lp1686
I3260
aI2405
aI5087
asI445206
(lp1687
I4336
aI2023
aI6822
asI19223
(lp1688
I4038
aI2780
aI3640
asI420632
(lp1689
I3628
aI3413
aI5450
asI35610
(lp1690
I4650
aI2617
aI1531
asI595759
(lp1691
I4297
aI2953
aI6602
asI19228
(lp1692
I4847
aI2830
aI2202
asI158495
(lp1693
I3811
aI3668
aI5446
asI71472
(lp1694
I4689
aI2837
aI2402
asI510756
(lp1695
I3382
aI1795
aI6488
asI133926
(lp1696
I4585
aI2797
aI3529
asI248615
(lp1697
I2354
aI3131
aI4129
asI109354
(lp1698
I3567
aI2723
aI2928
asI43821
(lp1699
I3011
aI2899
aI4259
asI453423
(lp1700
I2545
aI3566
aI6157
asI667594
(lp1701
I3603
aI2683
aI7662
asI215857
(lp1702
I3686
aI3002
aI3752
asI445234
(lp1703
I3506
aI2074
aI6685
asI276275
(lp1704
I4411
aI2004
aI4656
asI67614
(lp1705
I3763
aI4216
aI2276
asI128576
(lp1706
I4714
aI2265
aI2601
asI568121
(lp1707
I3348
aI2779
aI7579
asI463327
(lp1708
I3295
aI3740
aI5533
asI511114
(lp1709
I3289
aI2548
aI6033
asI19264
(lp1710
I3960
aI2305
aI2135
asI92993
(lp1711
I2531
aI3991
aI3251
asI142146
(lp1712
I2601
aI3579
aI3546
asI131577
(lp1713
I4797
aI2693
aI3039
asI199493
(lp1714
I4058
aI2897
aI4286
asI199494
(lp1715
I3039
aI2394
aI3626
asI125767
(lp1716
I4390
aI4196
aI2726
asI371528
(lp1717
I2429
aI2395
aI5342
asI265033
(lp1718
I4105
aI3683
aI4481
asI568138
(lp1719
I4249
aI2511
aI6829
asI125771
(lp1720
I4442
aI4197
aI2970
asI365388
(lp1721
I4311
aI2940
aI4926
asI33953
(lp1722
I4487
aI4185
aI2029
asI43856
(lp1723
I2684
aI3076
aI2473
asI620344
(lp1724
I4032
aI2111
aI7518
asI273235
(lp1725
I3539
aI2039
aI4572
asI138382
(lp1726
I2664
aI3490
aI3306
asI564825
(lp1727
I3325
aI1833
aI7203
asI371543
(lp1728
I3016
aI3066
aI5270
asI199513
(lp1729
I2930
aI2437
aI3582
asI453467
(lp1730
I3034
aI3748
aI5951
asI199516
(lp1731
I2945
aI2119
aI3506
asI18234
(lp1732
I3642
aI2521
aI1746
asI35678
(lp1733
I5014
aI2662
aI2098
asI609119
(lp1734
I2767
aI3168
aI7325
asI248672
(lp1735
I2745
aI3241
aI4283
asI199521
(lp1736
I3359
aI2198
aI3975
asI84835
(lp1737
I4931
aI3753
aI2140
asI19300
(lp1738
I4467
aI2339
aI1986
asI398905
(lp1739
I4462
aI2629
aI5429
asI641895
(lp1740
I2263
aI2393
aI5822
asI35688
(lp1741
I5003
aI2432
aI1948
asI289641
(lp1742
I4423
aI2565
aI4657
asI323890
(lp1743
I2739
aI2977
aI4907
asI43885
(lp1744
I2655
aI2798
aI2383
asI240494
(lp1745
I4442
aI2891
aI3763
asI183151
(lp1746
I2757
aI2161
aI4324
asI125808
(lp1747
I4284
aI4152
aI2694
asI437109
(lp1748
I1973
aI2532
aI6079
asI329346
(lp1749
I2817
aI3706
aI4788
asI103755
(lp1750
I3364
aI4033
aI2597
asI224124
(lp1751
I4507
aI2823
aI3664
asI239328
(lp1752
I4357
aI3017
aI3718
asI437119
(lp1753
I3204
aI2010
aI6471
asI46912
(lp1754
I2935
aI4267
aI2052
asI19331
(lp1755
I3352
aI2244
aI3163
asI480550
(lp1756
I4058
aI2195
aI5878
asI494470
(lp1757
I1942
aI3583
aI6329
asI248711
(lp1758
I2476
aI3445
aI4338
asI478089
(lp1759
I3509
aI3302
aI5970
asI338827
(lp1760
I3523
aI3371
aI4551
asI387980
(lp1761
I2762
aI3227
aI5079
asI183182
(lp1762
I4586
aI2555
aI3178
asI379792
(lp1763
I2122
aI3809
aI5430
asI392344
(lp1764
I3028
aI3848
aI5137
asI11154
(lp1765
I3796
aI2388
aI3223
asI79683
(lp1766
I4940
aI2371
aI2178
asI199572
(lp1767
I3466
aI2180
aI3546
asI35736
(lp1768
I5002
aI2755
aI1994
asI510873
(lp1769
I3306
aI1815
aI6742
asI76698
(lp1770
I4082
aI4237
aI2968
asI19355
(lp1771
I3649
aI2857
aI1513
asI76700
(lp1772
I4214
aI3758
aI3222
asI35741
(lp1773
I4813
aI2661
aI1856
asI76702
(lp1774
I4083
aI4071
aI2750
asI158623
(lp1775
I3803
aI2233
aI3022
asI48927
(lp1776
I3511
aI2478
aI2190
asI256929
(lp1777
I2794
aI2082
aI5247
asI93090
(lp1778
I2823
aI4157
aI2941
asI348688
(lp1779
I4044
aI2666
aI5229
asI592805
(lp1780
I3997
aI2345
aI6613
asI76710
(lp1781
I4470
aI3946
aI2463
asI35751
(lp1782
I4115
aI3402
aI4872
asI35752
(lp1783
I4475
aI3138
aI4841
asI352742
(lp1784
I3912
aI3339
aI4738
asI43946
(lp1785
I2786
aI3108
aI2803
asI273324
(lp1786
I3683
aI2576
aI4007
asI396206
(lp1787
I3090
aI1876
aI5130
asI21922
(lp1788
I3945
aI3530
aI1500
asI76720
(lp1789
I4440
aI4065
aI2666
asI601010
(lp1790
I2805
aI2630
aI7567
asI76723
(lp1791
I4228
aI4148
aI2711
asI431083
(lp1792
I4345
aI3188
aI5459
asI76726
(lp1793
I3695
aI3918
aI3100
asI248759
(lp1794
I2321
aI3275
aI4565
asI371640
(lp1795
I2811
aI2551
aI5181
asI76729
(lp1796
I4385
aI4229
aI2636
asI35770
(lp1797
I4524
aI3274
aI4883
asI609439
(lp1798
I3011
aI3342
aI7237
asI568252
(lp1799
I2954
aI2299
aI6603
asI26442
(lp1800
I4297
aI2255
aI3150
asI35774
(lp1801
I4579
aI2379
aI3085
asI510912
(lp1802
I3285
aI2400
aI6210
asI494529
(lp1803
I3179
aI2484
aI6965
asI592834
(lp1804
I4106
aI2532
aI6675
asI19395
(lp1805
I3984
aI3337
aI1575
asI510916
(lp1806
I4441
aI2014
aI5976
asI533390
(lp1807
I4228
aI2100
aI6222
asI617416
(lp1808
I3138
aI3455
aI7300
asI429001
(lp1809
I4195
aI2881
aI5218
asI377335
(lp1810
I2527
aI3298
aI5489
asI142284
(lp1811
I3070
aI3796
aI3347
asI166862
(lp1812
I3666
aI3037
aI4213
asI3023
(lp1813
I2949
aI3843
aI1622
asI543696
(lp1814
I2334
aI2340
aI6861
asI289746
(lp1815
I4303
aI3251
aI4448
asI183251
(lp1816
I4628
aI2613
aI3364
asI478164
(lp1817
I3966
aI3351
aI5986
asI445397
(lp1818
I3483
aI2063
aI6406
asI262649
(lp1819
I3453
aI2517
aI4853
asI132296
(lp1820
I4879
aI2946
aI2779
asI338906
(lp1821
I3560
aI3235
aI4574
asI22351
(lp1822
I4487
aI3631
aI1799
asI306142
(lp1823
I2235
aI2829
aI4700
asI175073
(lp1824
I3890
aI3213
aI3196
asI584674
(lp1825
I3475
aI3028
aI6785
asI510947
(lp1826
I3496
aI2437
aI6383
asI560100
(lp1827
I2637
aI2951
aI6925
asI445413
(lp1828
I4375
aI2185
aI6643
asI510950
(lp1829
I3005
aI2290
aI6154
asI502759
(lp1830
I2805
aI2978
aI6103
asI521116
(lp1831
I3825
aI1906
aI6242
asI150507
(lp1832
I3369
aI3511
aI3532
asI445420
(lp1833
I2986
aI1775
aI6061
asI11245
(lp1834
I4936
aI3191
aI2186
asI617454
(lp1835
I3705
aI3056
aI7392
asI35985
(lp1836
I5006
aI2755
aI1744
asI175088
(lp1837
I4616
aI3051
aI3211
asI429041
(lp1838
I4207
aI2663
aI5213
asI534355
(lp1839
I4181
aI2370
aI6416
asI125770
(lp1840
I4444
aI4195
aI2683
asI445433
(lp1841
I2680
aI1770
aI6067
asI44026
(lp1842
I2518
aI2990
aI2376
asI44029
(lp1843
I2695
aI3329
aI2580
asI437246
(lp1844
I2036
aI3089
aI5512
asI79209
(lp1845
I4839
aI2605
aI2443
asI109571
(lp1846
I4349
aI3902
aI2905
asI306181
(lp1847
I2441
aI3206
aI4690
asI519753
(lp1848
I3491
aI1767
aI6792
asI76808
(lp1849
I4303
aI4233
aI2027
asI306185
(lp1850
I2379
aI3036
aI4651
asI26455
(lp1851
I4528
aI2542
aI2342
asI330765
(lp1852
I3390
aI2260
aI5020
asI510990
(lp1853
I3675
aI2098
aI7187
asI87393
(lp1854
I2972
aI3097
aI2655
asI609296
(lp1855
I3934
aI3168
aI7766
asI429074
(lp1856
I4484
aI2514
aI5216
asI565763
(lp1857
I3184
aI2123
aI6646
asI330772
(lp1858
I3503
aI1968
aI4890
asI629934
(lp1859
I4201
aI1940
aI6920
asI330775
(lp1860
I3953
aI1967
aI5229
asI535575
(lp1861
I4354
aI1813
aI6784
asI535579
(lp1862
I4478
aI3804
aI2813
asI330780
(lp1863
I3981
aI2018
aI5134
asI494625
(lp1864
I2428
aI3448
aI6701
asI429091
(lp1865
I4247
aI2730
aI5235
asI69611
(lp1866
I5015
aI3122
aI2288
asI172550
(lp1867
I4448
aI2650
aI4796
asI338982
(lp1868
I3634
aI3261
aI4635
asI394547
(lp1869
I3692
aI3518
aI5559
asI535595
(lp1870
I4159
aI2385
aI6396
asI125985
(lp1871
I3761
aI4003
aI3174
asI128857
(lp1872
I4922
aI2640
aI2760
asI560177
(lp1873
I2559
aI2614
aI7305
asI109618
(lp1874
I4683
aI2893
aI3017
asI527539
(lp1875
I3939
aI3017
aI6290
asI535604
(lp1876
I4161
aI2546
aI6604
asI338998
(lp1877
I3249
aI2730
aI5437
asI601143
(lp1878
I2886
aI3436
aI6971
asI331258
(lp1879
I3215
aI1962
aI4566
asI166970
(lp1880
I3882
aI4025
aI3600
asI314427
(lp1881
I2520
aI3581
aI4671
asI173321
(lp1882
I4058
aI2506
aI3511
asI15541
(lp1883
I3417
aI4067
aI1905
asI633920
(lp1884
I4383
aI3150
aI7138
asI142401
(lp1885
I2639
aI3912
aI3355
asI633922
(lp1886
I3925
aI3138
aI7925
asI633925
(lp1887
I4460
aI2669
aI5874
asI478281
(lp1888
I4383
aI2571
aI5913
asI633930
(lp1889
I4014
aI2963
aI7520
asI232525
(lp1890
I4194
aI4069
aI3874
asI423736
(lp1891
I3819
aI3744
aI5515
asI535633
(lp1892
I4380
aI2768
aI6458
asI543827
(lp1893
I1941
aI2415
aI6895
asI142421
(lp1894
I2660
aI3977
aI3559
asI535639
(lp1895
I4375
aI2268
aI6542
asI339032
(lp1896
I3414
aI3548
aI4673
asI232538
(lp1897
I4232
aI3963
aI3727
asI44125
(lp1898
I2352
aI2892
aI4024
asI356632
(lp1899
I4018
aI3889
aI4563
asI414462
(lp1900
I3885
aI2574
aI5488
asI232546
(lp1901
I4244
aI3872
aI3713
asI634043
(lp1902
I4166
aI3013
aI7524
asI248932
(lp1903
I3925
aI2295
aI5478
asI232550
(lp1904
I4209
aI3729
aI3621
asI397841
(lp1905
I3595
aI2474
aI5309
asI535656
(lp1906
I4372
aI2548
aI6456
asI306281
(lp1907
I3249
aI3593
aI5103
asI527467
(lp1908
I3882
aI3191
aI6277
asI109678
(lp1909
I4832
aI3626
aI2865
asI552047
(lp1910
I2514
aI1880
aI6593
asI429168
(lp1911
I4518
aI2916
aI5302
asI633970
(lp1912
I4087
aI2694
aI7785
asI74030
(lp1913
I4764
aI3153
aI3105
asI584820
(lp1914
I3402
aI2912
aI6787
asI625781
(lp1915
I3885
aI3052
aI7046
asI183414
(lp1916
I4787
aI2459
aI3158
asI612201
(lp1917
I3520
aI2329
aI7543
asI64210
(lp1918
I3932
aI3557
aI2361
asI519289
(lp1919
I3048
aI3663
aI6635
asI199803
(lp1920
I2781
aI2169
aI3596
asI468713
(lp1921
I4167
aI2333
aI5525
asI26475
(lp1922
I4101
aI2290
aI2043
asI107030
(lp1923
I3694
aI2255
aI2504
asI527494
(lp1924
I3522
aI3131
aI6251
asI666211
(lp1925
I4308
aI2208
aI7636
asI150666
(lp1926
I3181
aI3387
aI3307
asI396427
(lp1927
I3075
aI1976
aI5132
asI126092
(lp1928
I4099
aI4049
aI2840
asI470157
(lp1929
I4208
aI3077
aI6422
asI461966
(lp1930
I3551
aI3797
aI4532
asI330895
(lp1931
I2866
aI2067
aI5100
asI158864
(lp1932
I3436
aI2303
aI3072
asI306321
(lp1933
I2730
aI2241
aI4720
asI486547
(lp1934
I4121
aI2873
aI6053
asI19604
(lp1935
I4859
aI3595
aI2012
asI524825
(lp1936
I4063
aI2373
aI6938
asI371864
(lp1937
I2482
aI2311
aI5585
asI142490
(lp1938
I3056
aI4102
aI3079
asI423791
(lp1939
I4429
aI2133
aI5699
asI142492
(lp1940
I2671
aI4251
aI1567
asI126109
(lp1941
I4436
aI3836
aI2822
asI535710
(lp1942
I3989
aI2572
aI6527
asI142495
(lp1943
I2469
aI4075
aI3175
asI412836
(lp1944
I4199
aI2019
aI5443
asI76965
(lp1945
I4510
aI4206
aI2010
asI437414
(lp1946
I2108
aI3195
aI5911
asI508444
(lp1947
I3594
aI1872
aI6602
asI396188
(lp1948
I4526
aI2455
aI5240
asI158892
(lp1949
I3833
aI2297
aI3174
asI201245
(lp1950
I3201
aI2290
aI3788
asI36016
(lp1951
I4937
aI2293
aI1770
asI173939
(lp1952
I4649
aI2833
aI3589
asI163498
(lp1953
I4715
aI2900
aI3683
asI80579
(lp1954
I4626
aI2279
aI2211
asI142519
(lp1955
I2397
aI3912
aI3053
asI19640
(lp1956
I3811
aI3307
aI1918
asI462009
(lp1957
I2996
aI2943
aI5812
asI543930
(lp1958
I2668
aI2774
aI6933
asI19643
(lp1959
I4334
aI3335
aI2332
asI232638
(lp1960
I4378
aI2607
aI6997
asI149365
(lp1961
I3044
aI2218
aI3555
asI421056
(lp1962
I3685
aI3835
aI5031
asI109761
(lp1963
I3786
aI2748
aI3074
asI19650
(lp1964
I3903
aI3006
aI1928
asI183499
(lp1965
I4785
aI2657
aI3194
asI445636
(lp1966
I2827
aI2792
aI5832
asI681846
(lp1967
I4182
aI2467
aI6342
asI145229
(lp1968
I2980
aI4221
aI3374
asI314567
(lp1969
I2179
aI3762
aI4746
asI36041
(lp1970
I4969
aI3231
aI1643
asI306379
(lp1971
I2197
aI2874
aI4732
asI265420
(lp1972
I2865
aI3839
aI4148
asI298171
(lp1973
I4553
aI2587
aI4027
asI373283
(lp1974
I3757
aI3016
aI5879
asI424286
(lp1975
I4411
aI2751
aI5090
asI453847
(lp1976
I3279
aI2042
aI5746
asI453849
(lp1977
I3234
aI1880
aI5539
asI122063
(lp1978
I4398
aI2923
aI3036
asI77020
(lp1979
I4455
aI4097
aI2177
asI249053
(lp1980
I2294
aI3624
aI4288
asI462046
(lp1981
I3084
aI3326
aI5772
asI347359
(lp1982
I4521
aI2081
aI5050
asI265443
(lp1983
I3237
aI2831
aI4667
asI8932584
(lp1984
I3630
aI3503
aI7424
asI182982
(lp1985
I4737
aI2784
aI3218
asI27886
(lp1986
I4617
aI2323
aI1765
asI93425
(lp1987
I3155
aI4066
aI2855
asI363762
(lp1988
I4253
aI2913
aI5471
asI339189
(lp1989
I3634
aI3189
aI4737
asI363766
(lp1990
I4499
aI2647
aI5049
asI363767
(lp1991
I4490
aI3025
aI5027
asI306424
(lp1992
I2169
aI2514
aI4725
asI453883
(lp1993
I3453
aI1804
aI5558
asI139818
(lp1994
I2406
aI3403
aI3022
asI535807
(lp1995
I3921
aI2240
aI6035
asI3328
(lp1996
I3270
aI4147
aI1761
asI189149
(lp1997
I4773
aI3607
aI3150
asI363779
(lp1998
I4263
aI2562
aI4980
asI519428
(lp1999
I3313
aI3501
aI6869
asI519429
(lp2000
I3288
aI3688
aI6714
asI27910
(lp2001
I4772
aI2733
aI1972
asI526209
(lp2002
I3571
aI2881
aI6426
asI478472
(lp2003
I4369
aI1768
aI6172
asI311083
(lp2004
I3068
aI2761
aI4799
asI175373
(lp2005
I4745
aI3554
aI3530
asI186008
(lp2006
I4628
aI2944
aI3529
asI430637
(lp2007
I4525
aI2726
aI5452
asI296353
(lp2008
I3976
aI3950
aI4454
asI3346
(lp2009
I2620
aI3507
aI1866
asI601363
(lp2010
I2034
aI3657
aI7309
asI93460
(lp2011
I2542
aI3597
aI3046
asI404757
(lp2012
I3190
aI3261
aI5231
asI118039
(lp2013
I4236
aI2538
aI2528
asI11544
(lp2014
I4049
aI3239
aI2251
asI3353
(lp2015
I3930
aI2870
aI2319
asI503066
(lp2016
I2763
aI3201
aI6168
asI533947
(lp2017
I4326
aI1869
aI6315
asI317317
(lp2018
I3075
aI1940
aI4669
asI48667
(lp2019
I4977
aI3718
aI2671
asI478499
(lp2020
I4165
aI1773
aI6042
asI126246
(lp2021
I4354
aI4168
aI3026
asI478503
(lp2022
I4064
aI2158
aI6161
asI412968
(lp2023
I3626
aI2098
aI5384
asI453929
(lp2024
I3283
aI1893
aI5617
asI191786
(lp2025
I2636
aI2627
aI3520
asI251072
(lp2026
I4567
aI3469
aI4477
asI331053
(lp2027
I4085
aI2323
aI4739
asI118063
(lp2028
I4639
aI2374
aI2686
asI601392
(lp2029
I2063
aI3417
aI7459
asI265521
(lp2030
I2874
aI3410
aI4362
asI19765
(lp2031
I3925
aI3073
aI2981
asI494904
(lp2032
I2322
aI3411
aI6414
asI93497
(lp2033
I4775
aI2651
aI3082
asI601402
(lp2034
I1940
aI3512
aI7448
asI331067
(lp2035
I3367
aI2061
aI4513
asI625981
(lp2036
I3852
aI3252
aI7198
asI191806
(lp2037
I2333
aI2704
aI3519
asI339263
(lp2038
I3499
aI1987
aI5284
asI601410
(lp2039
I2507
aI2741
aI7603
asI601412
(lp2040
I2363
aI2734
aI7587
asI527686
(lp2041
I3945
aI3089
aI6294
asI134473
(lp2042
I4824
aI3737
aI2695
asI453963
(lp2043
I3492
aI2169
aI6078
asI465753
(lp2044
I3860
aI1831
aI5865
asI80857
(lp2045
I4982
aI2299
aI2295
asI380243
(lp2046
I3814
aI3775
aI5901
asI522126
(lp2047
I3670
aI1826
aI6567
asI494934
(lp2048
I2038
aI3635
aI6515
asI380248
(lp2049
I2033
aI3833
aI5407
asI234123
(lp2050
I4248
aI4004
aI3698
asI167258
(lp2051
I4247
aI3783
aI3443
asI421211
(lp2052
I3811
aI3655
aI5495
asI478557
(lp2053
I4432
aI2070
aI5875
asI3424
(lp2054
I4099
aI3295
aI2585
asI249185
(lp2055
I2596
aI3311
aI4365
asI421220
(lp2056
I3839
aI3680
aI5609
asI337809
(lp2057
I3591
aI3050
aI4878
asI167274
(lp2058
I4064
aI4036
aI3463
asI437611
(lp2059
I3267
aI3666
aI5706
asI421229
(lp2060
I3831
aI3741
aI5453
asI306542
(lp2061
I3058
aI3209
aI4840
asI62036
(lp2062
I4638
aI2691
aI2965
asI26443
(lp2063
I4311
aI2286
aI2036
asI445813
(lp2064
I2595
aI2452
aI5564
asI286809
(lp2065
I4144
aI2185
aI4699
asI419505
(lp2066
I4503
aI3097
aI5249
asI200056
(lp2067
I2795
aI2231
aI3727
asI30155
(lp2068
I5013
aI3383
aI1847
asI150911
(lp2069
I3604
aI3531
aI3195
asI421248
(lp2070
I3888
aI3756
aI5555
asI527745
(lp2071
I3538
aI2899
aI6337
asI293216
(lp2072
I4536
aI3223
aI4752
asI431071
(lp2073
I4322
aI3264
aI5355
asI167300
(lp2074
I3455
aI3760
aI3484
asI18326
(lp2075
I4657
aI2648
aI1509
asI236072
(lp2076
I4741
aI2461
aI3678
asI3465
(lp2077
I2721
aI3409
aI1970
asI38032
(lp2078
I5002
aI2565
aI1904
asI262722
(lp2079
I3098
aI3284
aI4624
asI191886
(lp2080
I2334
aI3037
aI3535
asI84678
(lp2081
I4953
aI3618
aI2219
asI134545
(lp2082
I4889
aI3677
aI2817
asI478611
(lp2083
I4425
aI1930
aI5997
asI454037
(lp2084
I3552
aI2062
aI5906
asI526233
(lp2085
I3679
aI3253
aI7018
asI625327
(lp2086
I3744
aI2765
aI7445
asI478618
(lp2087
I4148
aI1824
aI5769
asI510123
(lp2088
I3429
aI2062
aI6486
asI470429
(lp2089
I3990
aI2623
aI5885
asI347550
(lp2090
I3842
aI2127
aI4830
asI478624
(lp2091
I4339
aI1786
aI5941
asI249250
(lp2092
I2818
aI3840
aI4325
asI463028
(lp2093
I3735
aI2920
aI5995
asI527785
(lp2094
I3996
aI3182
aI6127
asI167340
(lp2095
I3528
aI4197
aI3271
asI167341
(lp2096
I3689
aI4223
aI3498
asI366493
(lp2097
I4446
aI3159
aI4984
asI396721
(lp2098
I3387
aI2363
aI5291
asI383376
(lp2099
I3050
aI1878
aI5353
asI167347
(lp2100
I3476
aI3427
aI5812
asI306612
(lp2101
I2276
aI2617
aI4873
asI535989
(lp2102
I4374
aI2283
aI6069
asI634294
(lp2103
I4010
aI3173
aI7015
asI634296
(lp2104
I4004
aI3099
aI6897
asI11705
(lp2105
I3205
aI2884
aI2057
asI495034
(lp2106
I2077
aI3540
aI6520
asI233469
(lp2107
I4237
aI3991
aI3644
asI517073
(lp2108
I3268
aI3602
aI6297
asI306626
(lp2109
I2154
aI2573
aI4738
asI249283
(lp2110
I2496
aI3398
aI4231
asI538590
(lp2111
I4213
aI3182
aI6533
asI380361
(lp2112
I2087
aI3833
aI5487
asI601547
(lp2113
I2370
aI3487
aI6678
asI11724
(lp2114
I4049
aI3191
aI5588
asI470477
(lp2115
I3815
aI2922
aI5956
asI11727
(lp2116
I3672
aI2733
aI2921
asI167377
(lp2117
I3661
aI4203
aI3076
asI519634
(lp2118
I4221
aI2092
aI6675
asI251811
(lp2119
I2941
aI3184
aI4946
asI413140
(lp2120
I3965
aI1941
aI5362
asI182614
(lp2121
I4686
aI2294
aI3121
asI478679
(lp2122
I4463
aI1909
aI5565
asI609752
(lp2123
I2940
aI3213
aI7241
asI456612
(lp2124
I3088
aI1821
aI5933
asI486877
(lp2125
I1958
aI2204
aI6060
asI486879
(lp2126
I2099
aI2208
aI6020
asI236075
(lp2127
I4738
aI2619
aI3969
asI3555
(lp2128
I2662
aI3393
aI1740
asI388580
(lp2129
I2907
aI3112
aI5235
asI486888
(lp2130
I2393
aI2187
aI6013
asI240613
(lp2131
I4743
aI2907
aI3763
asI44524
(lp2132
I2849
aI2867
aI3604
asI306669
(lp2133
I3420
aI3017
aI4851
asI3567
(lp2134
I2942
aI3209
aI2818
asI550824
(lp2135
I1923
aI3680
aI6875
asI442963
(lp2136
I3369
aI2193
aI6210
asI486902
(lp2137
I2067
aI2294
aI6106
asI151031
(lp2138
I3646
aI3275
aI3436
asI609784
(lp2139
I2606
aI3359
aI7297
asI609785
(lp2140
I2929
aI3342
aI7437
asI11770
(lp2141
I3163
aI3643
aI4790
asI609787
(lp2142
I2785
aI3278
aI7898
asI634348
(lp2143
I4256
aI3055
aI7226
asI388607
(lp2144
I3026
aI3002
aI5223
asI527872
(lp2145
I3879
aI3199
aI6343
asI11777
(lp2146
I4550
aI3001
aI4716
asI364186
(lp2147
I4558
aI2735
aI4814
asI11779
(lp2148
I2046
aI2554
aI7955
asI79499
(lp2149
I4996
aI2610
aI2262
asI11781
(lp2150
I2750
aI2888
aI4366
asI11783
(lp2151
I3267
aI3467
aI3026
asI134665
(lp2152
I4953
aI3697
aI2756
asI182611
(lp2153
I4823
aI2778
aI3210
asI372236
(lp2154
I4519
aI3201
aI5361
asI11791
(lp2155
I3757
aI3893
aI2757
asI19985
(lp2156
I4299
aI3623
aI2693
asI11794
(lp2157
I3413
aI3984
aI2272
asI101908
(lp2158
I3249
aI3761
aI2747
asI380437
(lp2159
I2048
aI3685
aI5546
asI11799
(lp2160
I3535
aI3716
aI1522
asI192024
(lp2161
I2652
aI2824
aI3543
asI372249
(lp2162
I2115
aI2467
aI5304
asI495134
(lp2163
I2594
aI3349
aI6152
asI347680
(lp2164
I4409
aI2608
aI5219
asI634401
(lp2165
I4379
aI2971
aI7204
asI11810
(lp2166
I3976
aI3677
aI1670
asI93731
(lp2167
I2410
aI3996
aI3715
asI536101
(lp2168
I4350
aI2296
aI6239
asI609831
(lp2169
I2602
aI3698
aI7263
asI634410
(lp2170
I3935
aI2779
aI7124
asI331309
(lp2171
I3582
aI2111
aI4637
asI478766
(lp2172
I4282
aI2312
aI5900
asI93744
(lp2173
I3084
aI3988
aI3285
asI233009
(lp2174
I3991
aI4111
aI3567
asI495161
(lp2175
I3763
aI3245
aI6903
asI192064
(lp2176
I2646
aI2709
aI3593
asI454209
(lp2177
I3610
aI1997
aI5498
asI180158
(lp2178
I4354
aI4013
aI3077
asI347720
(lp2179
I4018
aI2063
aI4817
asI44617
(lp2180
I2769
aI3663
aI2223
asI77386
(lp2181
I4082
aI4232
aI2158
asI249419
(lp2182
I2487
aI3037
aI4138
asI486988
(lp2183
I2199
aI2393
aI5991
asI160354
(lp2184
I3498
aI2241
aI3375
asI358558
(lp2185
I3853
aI3492
aI4775
asI192082
(lp2186
I4631
aI3095
aI3826
asI373347
(lp2187
I2998
aI2564
aI6231
asI175700
(lp2188
I4604
aI3044
aI3455
asI346283
(lp2189
I3803
aI1929
aI4669
asI77398
(lp2190
I4445
aI4117
aI2222
asI372312
(lp2191
I2371
aI2508
aI5492
asI437849
(lp2192
I2093
aI3290
aI6138
asI601690
(lp2193
I2242
aI3553
aI7103
asI380509
(lp2194
I2686
aI3349
aI5803
asI44638
(lp2195
I2591
aI3394
aI2036
asI192095
(lp2196
I2373
aI2830
aI3636
asI421472
(lp2197
I4028
aI3604
aI5132
asI21945
(lp2198
I3883
aI3659
aI1675
asI93796
(lp2199
I3193
aI4199
aI2950
asI36453
(lp2200
I4698
aI2167
aI3581
asI519782
(lp2201
I4370
aI2090
aI6228
asI138513
(lp2202
I3379
aI2635
aI3653
asI544361
(lp2203
I2673
aI2144
aI7039
asI200299
(lp2204
I2701
aI3777
aI4550
asI478828
(lp2205
I4274
aI2379
aI5750
asI118381
(lp2206
I4296
aI2249
aI3002
asI601711
(lp2207
I1957
aI3649
aI7101
asI446065
(lp2208
I2971
aI2820
aI5668
asI519794
(lp2209
I3880
aI1887
aI6300
asI233076
(lp2210
I4245
aI4091
aI3568
asI456638
(lp2211
I3951
aI2402
aI6728
asI93814
(lp2212
I3236
aI4180
aI2754
asI355959
(lp2213
I3962
aI3732
aI4931
asI519800
(lp2214
I5000
aI2550
aI1921
asI257300
(lp2215
I2723
aI2067
aI4255
asI36474
(lp2216
I3939
aI2175
aI4362
asI355964
(lp2217
I3788
aI3904
aI4913
asI355965
(lp2218
I3869
aI3909
aI4990
asI490773
(lp2219
I2351
aI3082
aI6453
asI355968
(lp2220
I4092
aI3837
aI4984
asI3717
(lp2221
I2560
aI3427
aI1884
asI257670
(lp2222
I3424
aI2689
aI4485
asI192136
(lp2223
I2372
aI2857
aI3583
asI355977
(lp2224
I4037
aI3715
aI4992
asI372362
(lp2225
I2769
aI2189
aI5445
asI642701
(lp2226
I3029
aI3968
aI4110
asI134799
(lp2227
I4974
aI3559
aI2889
asI142993
(lp2228
I4341
aI2594
aI3590
asI159378
(lp2229
I3979
aI2267
aI3142
asI591811
(lp2230
I4258
aI2624
aI6748
asI12910
(lp2231
I3408
aI3402
aI2010
asI134425
(lp2232
I4821
aI3697
aI2793
asI118424
(lp2233
I4541
aI2271
aI3004
asI462490
(lp2234
I3856
aI3664
aI5668
asI514011
(lp2235
I3279
aI2827
aI6537
asI478490
(lp2236
I4264
aI2043
aI5887
asI118430
(lp2237
I3923
aI2532
aI3222
asI249504
(lp2238
I2585
aI3499
aI4197
asI634344
(lp2239
I4139
aI3167
aI7127
asI544423
(lp2240
I2002
aI2418
aI6993
asI44712
(lp2241
I2780
aI3428
aI2061
asI118442
(lp2242
I4399
aI2247
aI3033
asI529323
(lp2243
I3875
aI3666
aI6472
asI429744
(lp2244
I4512
aI2564
aI5236
asI374728
(lp2245
I2818
aI3716
aI5284
asI143026
(lp2246
I2762
aI4050
aI3171
asI356021
(lp2247
I4041
aI3893
aI4999
asI526281
(lp2248
I4278
aI3080
aI6587
asI44728
(lp2249
I4683
aI2988
aI2360
asI486393
(lp2250
I4030
aI3265
aI5942
asI69307
(lp2251
I4213
aI2303
aI2347
asI93885
(lp2252
I3069
aI4150
aI3017
asI437950
(lp2253
I2441
aI3322
aI6135
asI265921
(lp2254
I3284
aI3783
aI4803
asI44739
(lp2255
I3851
aI3912
aI2111
asI478916
(lp2256
I4352
aI2245
aI5589
asI320118
(lp2257
I4495
aI2129
aI5380
asI21130
(lp2258
I4853
aI3038
aI1880
asI69320
(lp2259
I4568
aI2255
aI2663
asI362444
(lp2260
I4488
aI2067
aI4845
asI192202
(lp2261
I2290
aI3093
aI3550
asI406135
(lp2262
I4005
aI3685
aI5403
asI367906
(lp2263
I4290
aI3350
aI4762
asI487118
(lp2264
I1915
aI2733
aI6031
asI59341
(lp2265
I4610
aI2328
aI2245
asI586360
(lp2266
I3660
aI3662
aI6602
asI3794
(lp2267
I4431
aI3316
aI2079
asI347859
(lp2268
I4053
aI2376
aI4895
asI355951
(lp2269
I4026
aI3810
aI5251
asI438906
(lp2270
I4217
aI3179
aI7451
asI538658
(lp2271
I4259
aI3058
aI6144
asI3807
(lp2272
I3364
aI4007
aI3172
asI465280
(lp2273
I3472
aI3759
aI5914
asI667366
(lp2274
I3695
aI2476
aI7610
asI3815
(lp2275
I3388
aI3760
aI2252
asI437996
(lp2276
I2273
aI2992
aI5700
asI44781
(lp2277
I2566
aI3577
aI2210
asI560878
(lp2278
I2717
aI3578
aI6331
asI601840
(lp2279
I2127
aI3349
aI7048
asI257779
(lp2280
I2732
aI1992
aI4326
asI200436
(lp2281
I2889
aI2804
aI3668
asI454389
(lp2282
I3123
aI1953
aI5662
asI446199
(lp2283
I3143
aI2142
aI5992
asI208632
(lp2284
I4385
aI3223
aI4366
asI69370
(lp2285
I4536
aI2254
aI2552
asI208636
(lp2286
I2953
aI4005
aI3981
asI519934
(lp2287
I3751
aI2250
aI6507
asI8933120
(lp2288
I3539
aI3380
aI4779
asI69378
(lp2289
I4070
aI2260
aI2577
asI249603
(lp2290
I2351
aI3256
aI4143
asI560901
(lp2291
I3186
aI3686
aI6575
asI560905
(lp2292
I2651
aI3633
aI6888
asI358359
(lp2293
I4000
aI3515
aI4855
asI208652
(lp2294
I3145
aI3865
aI3741
asI3853
(lp2295
I2775
aI3501
aI1784
asI208654
(lp2296
I3026
aI3906
aI3981
asI93969
(lp2297
I2940
aI4141
aI2956
asI233234
(lp2298
I3970
aI4089
aI3609
asI478995
(lp2299
I4311
aI1881
aI5678
asI372500
(lp2300
I2249
aI2961
aI5212
asI560918
(lp2301
I3209
aI3667
aI7517
asI82078
(lp2302
I4721
aI3183
aI2489
asI560920
(lp2303
I3683
aI3617
aI7537
asI380698
(lp2304
I2289
aI3559
aI5822
asI32047
(lp2305
I4544
aI3598
aI1718
asI667421
(lp2306
I3998
aI2423
aI7783
asI3871
(lp2307
I3159
aI4004
aI2036
asI519472
(lp2308
I3871
aI1759
aI6070
asI605706
(lp2309
I3143
aI2138
aI7522
asI249635
(lp2310
I2322
aI3430
aI4265
asI167718
(lp2311
I3687
aI4183
aI3093
asI143144
(lp2312
I2459
aI3821
aI3220
asI538588
(lp2313
I4353
aI2859
aI6554
asI552747
(lp2314
I2551
aI1851
aI6849
asI536366
(lp2315
I4203
aI2709
aI6173
asI143151
(lp2316
I3082
aI4006
aI3342
asI560949
(lp2317
I2590
aI3526
aI7051
asI208694
(lp2318
I2848
aI3962
aI3782
asI306999
(lp2319
I2302
aI3598
aI4735
asI257850
(lp2320
I2781
aI2087
aI4411
asI221834
(lp2321
I3723
aI4062
aI3688
asI61246
(lp2322
I3970
aI2276
aI2339
asI3904
(lp2323
I2235
aI2857
aI6756
asI511810
(lp2324
I3257
aI2662
aI6124
asI249667
(lp2325
I2580
aI3330
aI4328
asI610117
(lp2326
I2510
aI3508
aI7005
asI487238
(lp2327
I2080
aI2214
aI6328
asI297463
(lp2328
I4657
aI2320
aI4282
asI170742
(lp2329
I4752
aI2559
aI3735
asI414348
(lp2330
I4321
aI2360
aI5906
asI28490
(lp2331
I3893
aI2417
aI5445
asI462669
(lp2332
I3417
aI3340
aI6656
asI61262
(lp2333
I4449
aI2381
aI2344
asI167346
(lp2334
I3900
aI2758
aI3533
asI3384
(lp2335
I2762
aI3682
aI1827
asI145379
(lp2336
I2686
aI3873
aI4265
asI372564
(lp2337
I2280
aI2451
aI5321
asI462677
(lp2338
I3428
aI2871
aI6356
asI413526
(lp2339
I3837
aI1882
aI5442
asI372568
(lp2340
I2119
aI2812
aI5304
asI167667
(lp2341
I3871
aI4105
aI3216
asI208731
(lp2342
I2985
aI3695
aI5300
asI135005
(lp2343
I4890
aI3291
aI2984
asI565609
(lp2344
I3135
aI1750
aI6648
asI397575
(lp2345
I3321
aI2174
aI5280
asI28515
(lp2346
I4868
aI3427
aI2915
asI577380
(lp2347
I4381
aI2425
aI4118
asI577381
(lp2348
I4009
aI2376
aI7012
asI577382
(lp2349
I3801
aI1800
aI6973
asI3944
(lp2350
I2765
aI3713
aI2161
asI3945
(lp2351
I2713
aI3615
aI1949
asI192367
(lp2352
I2576
aI3000
aI3671
asI577393
(lp2353
I3432
aI1915
aI6468
asI307058
(lp2354
I2117
aI2888
aI4778
asI561011
(lp2355
I2904
aI3683
aI7169
asI372597
(lp2356
I2600
aI2977
aI5266
asI429942
(lp2357
I4507
aI2823
aI5361
asI372599
(lp2358
I2541
aI2686
aI5640
asI249720
(lp2359
I2207
aI3279
aI4149
asI28537
(lp2360
I3957
aI2817
aI3580
asI520058
(lp2361
I3594
aI1757
aI6049
asI630079
(lp2362
I4301
aI1973
aI7127
asI315260
(lp2363
I2629
aI3681
aI4997
asI446333
(lp2364
I3160
aI2855
aI5682
asI70293
(lp2365
I4537
aI2637
aI2304
asI405376
(lp2366
I3583
aI3216
aI5318
asI372610
(lp2367
I4244
aI3069
aI5439
asI544643
(lp2368
I2003
aI2226
aI6994
asI372612
(lp2369
I2032
aI2379
aI5459
asI549526
(lp2370
I2052
aI3611
aI6709
asI380807
(lp2371
I2157
aI3583
aI5481
asI339848
(lp2372
I3707
aI3061
aI4687
asI514028
(lp2373
I3297
aI3167
aI6411
asI495499
(lp2374
I2457
aI3593
aI6324
asI380813
(lp2375
I2068
aI3694
aI5510
asI626575
(lp2376
I3669
aI3356
aI7116
asI28564
(lp2377
I4888
aI2370
aI2229
asI180889
(lp2378
I4333
aI4177
aI3150
asI577433
(lp2379
I3615
aI1817
aI6986
asI94106
(lp2380
I4132
aI2293
aI3322
asI571375
(lp2381
I3446
aI2350
aI7890
asI28574
(lp2382
I4529
aI3126
aI1626
asI4000
(lp2383
I2518
aI3298
aI1829
asI438177
(lp2384
I3138
aI3343
aI6145
asI462756
(lp2385
I3393
aI3174
aI5964
asI310598
(lp2386
I3815
aI3472
aI4768
asI520106
(lp2387
I3785
aI2126
aI6202
asI577451
(lp2388
I3793
aI1750
aI6971
asI331692
(lp2389
I3538
aI2479
aI4563
asI44974
(lp2390
I2543
aI3539
aI2125
asI552879
(lp2391
I2637
aI1921
aI6904
asI528305
(lp2392
I3505
aI2791
aI6405
asI176050
(lp2393
I3894
aI3173
aI3405
asI514035
(lp2394
I3857
aI3097
aI6834
asI569270
(lp2395
I3128
aI2597
aI6669
asI520119
(lp2396
I3523
aI1776
aI6070
asI577464
(lp2397
I3998
aI2137
aI6827
asI364473
(lp2398
I4485
aI2764
aI4775
asI438202
(lp2399
I2102
aI3247
aI5704
asI495547
(lp2400
I2465
aI3507
aI6630
asI304832
(lp2401
I4456
aI2320
aI4716
asI81226
(lp2402
I4680
aI2893
aI2760
asI307134
(lp2403
I2235
aI2664
aI4872
asI468981
(lp2404
I3680
aI2677
aI5993
asI578433
(lp2405
I3917
aI1755
aI6655
asI413633
(lp2406
I3923
aI3303
aI5801
asI4035
(lp2407
I4471
aI2919
aI3542
asI28014
(lp2408
I4511
aI2537
aI1833
asI372678
(lp2409
I4159
aI2694
aI5725
asI37537
(lp2410
I4667
aI2614
aI4490
asI189309
(lp2411
I4706
aI3719
aI3126
asI438218
(lp2412
I2224
aI2982
aI5861
asI367790
(lp2413
I4363
aI3002
aI4749
asI94158
(lp2414
I2434
aI3655
aI6602
asI331727
(lp2415
I4246
aI2991
aI4571
asI438224
(lp2416
I2093
aI3390
aI6123
asI479907
(lp2417
I4426
aI2352
aI5707
asI167246
(lp2418
I4111
aI4052
aI3556
asI120705
(lp2419
I4204
aI2948
aI3320
asI535550
(lp2420
I4156
aI3045
aI6362
asI380889
(lp2421
I2449
aI3678
aI5562
asI266202
(lp2422
I3410
aI3655
aI4454
asI380891
(lp2423
I1982
aI3679
aI5531
asI94172
(lp2424
I2859
aI4145
aI3017
asI53216
(lp2425
I4167
aI3245
aI2181
asI28642
(lp2426
I4217
aI2994
aI2801
asI284667
(lp2427
I3807
aI1986
aI4403
asI520164
(lp2428
I4047
aI1752
aI6189
asI316070
(lp2429
I2737
aI3567
aI4975
asI479206
(lp2430
I4462
aI1787
aI5583
asI307176
(lp2431
I3060
aI3100
aI4754
asI258025
(lp2432
I3469
aI2621
aI4341
asI69610
(lp2433
I4094
aI2296
aI2107
asI102379
(lp2434
I2971
aI3587
aI3159
asI28652
(lp2435
I4388
aI2754
aI3230
asI28653
(lp2436
I4829
aI2505
aI2153
asI249839
(lp2437
I3351
aI3888
aI4345
asI528369
(lp2438
I4263
aI2860
aI6782
asI421203
(lp2439
I3818
aI3514
aI5772
asI28661
(lp2440
I4432
aI3201
aI1878
asI28664
(lp2441
I4375
aI2546
aI6217
asI28665
(lp2442
I4945
aI2322
aI2971
asI28666
(lp2443
I5009
aI3383
aI2105
asI479227
(lp2444
I4245
aI1901
aI5746
asI28668
(lp2445
I4717
aI2395
aI3871
asI307197
(lp2446
I4492
aI2125
aI5154
asI4095
(lp2447
I2840
aI3717
aI1854
asI4096
(lp2448
I3959
aI3722
aI1901
asI544769
(lp2449
I3358
aI2744
aI7675
asI249858
(lp2450
I2678
aI3456
aI4250
asI421206
(lp2451
I3974
aI3746
aI5468
asI444417
(lp2452
I3017
aI2034
aI5904
asI544776
(lp2453
I2732
aI2675
aI7283
asI192522
(lp2454
I4234
aI2990
aI3677
asI94220
(lp2455
I4327
aI3020
aI4573
asI28686
(lp2456
I4954
aI3350
aI1814
asI4774
(lp2457
I2842
aI3842
aI1948
asI28688
(lp2458
I4705
aI2593
aI1509
asI28689
(lp2459
I4776
aI2795
aI2164
asI102419
(lp2460
I4315
aI4009
aI2945
asI529335
(lp2461
I3698
aI3595
aI6507
asI367575
(lp2462
I4156
aI3093
aI4612
asI462872
(lp2463
I3543
aI3522
aI6002
asI544793
(lp2464
I1931
aI2352
aI7017
asI410402
(lp2465
I3886
aI2196
aI5417
asI102428
(lp2466
I3224
aI3738
aI2823
asI438301
(lp2467
I2157
aI2987
aI5824
asI487454
(lp2468
I2519
aI2467
aI5992
asI561183
(lp2469
I2978
aI3308
aI6754
asI503840
(lp2470
I2618
aI2802
aI6230
asI389156
(lp2471
I2845
aI3389
aI5174
asI454695
(lp2472
I3153
aI1835
aI5616
asI19642
(lp2473
I3806
aI3093
aI2874
asI28715
(lp2474
I3406
aI2367
aI5115
asI602159
(lp2475
I1963
aI3684
aI7137
asI249904
(lp2476
I2295
aI3542
aI4251
asI137224
(lp2477
I2436
aI2929
aI3526
asI522926
(lp2478
I3788
aI2583
aI6157
asI454711
(lp2479
I3228
aI1861
aI5706
asI184377
(lp2480
I4862
aI2414
aI3218
asI414436
(lp2481
I4262
aI2892
aI5514
asI331839
(lp2482
I3250
aI2331
aI4598
asI535904
(lp2483
I4104
aI2731
aI6416
asI438338
(lp2484
I2282
aI3226
aI5731
asI356419
(lp2485
I4019
aI3848
aI4919
asI536644
(lp2486
I4233
aI2741
aI6206
asI348230
(lp2487
I4039
aI2038
aI4865
asI490849
(lp2488
I1934
aI3028
aI6192
asI14348
(lp2489
I2936
aI3785
aI2656
asI28747
(lp2490
I4251
aI3075
aI1986
asI397388
(lp2491
I3514
aI1882
aI5293
asI22541
(lp2492
I4917
aI3004
aI1790
asI315472
(lp2493
I3997
aI2916
aI5335
asI535611
(lp2494
I4132
aI2493
aI6624
asI480150
(lp2495
I4255
aI2147
aI5772
asI538638
(lp2496
I4005
aI3040
aI6368
asI356438
(lp2497
I3940
aI3681
aI4939
asI160441
(lp2498
I3431
aI2269
aI3752
asI109525
(lp2499
I3967
aI2354
aI3015
asI681999
(lp2500
I4508
aI4201
aI1908
asI249949
(lp2501
I3007
aI3858
aI4312
asI45150
(lp2502
I3349
aI2967
aI2187
asI348257
(lp2503
I3914
aI1951
aI4864
asI618595
(lp2504
I3218
aI3462
aI7356
asI372837
(lp2505
I2384
aI2491
aI5381
asI553063
(lp2506
I2462
aI2009
aI6759
asI438377
(lp2507
I2445
aI3089
aI6052
asI48487
(lp2508
I2978
aI3921
aI2467
asI171532
(lp2509
I4446
aI2557
aI3117
asI684142
(lp2510
I2561
aI3648
aI6355
asI372847
(lp2511
I3271
aI3191
aI3514
asI682003
(lp2512
I3698
aI4004
aI2618
asI577652
(lp2513
I3654
aI2177
aI6502
asI373438
(lp2514
I2523
aI2253
aI5524
asI446584
(lp2515
I2610
aI2372
aI6610
asI505876
(lp2516
I2733
aI3671
aI6068
asI602236
(lp2517
I2464
aI3689
aI7161
asI94333
(lp2518
I2957
aI3831
aI2999
asI45184
(lp2519
I2789
aI3835
aI2108
asI258179
(lp2520
I4629
aI2742
aI4419
asI438405
(lp2521
I2048
aI3189
aI5819
asI332117
(lp2522
I3540
aI2081
aI4640
asI602247
(lp2523
I2332
aI3331
aI7235
asI544905
(lp2524
I2159
aI2700
aI6994
asI553101
(lp2525
I2664
aI2121
aI6861
asI4240
(lp2526
I3539
aI3719
aI2206
asI602257
(lp2527
I2098
aI3553
aI7212
asI553107
(lp2528
I2407
aI2100
aI6899
asI3438
(lp2529
I2867
aI3663
aI3575
asI520342
(lp2530
I3740
aI2027
aI6100
asI686105
(lp2531
I4938
aI3675
aI2743
asI372889
(lp2532
I4198
aI2635
aI5808
asI381089
(lp2533
I2555
aI2157
aI5084
asI38604
(lp2534
I4899
aI2832
aI2298
asI495781
(lp2535
I1903
aI3661
aI6546
asI446633
(lp2536
I3569
aI3016
aI6847
asI192683
(lp2537
I3012
aI3951
aI3807
asI15730
(lp2538
I3839
aI4139
aI1613
asI45230
(lp2539
I2578
aI3567
aI2188
asI159919
(lp2540
I3927
aI2305
aI3671
asI438451
(lp2541
I1974
aI3036
aI5725
asI544948
(lp2542
I2020
aI3161
aI7435
asI321566
(lp2543
I2737
aI3773
aI4574
asI524422
(lp2544
I3804
aI2584
aI6300
asI381112
(lp2545
I2547
aI2371
aI5018
asI458100
(lp2546
I4159
aI2400
aI5833
asI15691
(lp2547
I3123
aI4147
aI2085
asI37051
(lp2548
I5015
aI2762
aI1878
asI544957
(lp2549
I3257
aI3371
aI5170
asI9412
(lp2550
I4961
aI2744
aI2062
asI474485
(lp2551
I3948
aI3233
aI5987
asI590435
(lp2552
I4044
aI2019
aI6707
asI94403
(lp2553
I2902
aI3420
aI5550
asI356548
(lp2554
I3882
aI3918
aI4731
asI397511
(lp2555
I3580
aI2445
aI5180
asI410135
(lp2556
I3612
aI1950
aI4940
asI381130
(lp2557
I3061
aI2662
aI5126
asI417773
(lp2558
I3854
aI3271
aI5972
asI397516
(lp2559
I3232
aI1899
aI5349
asI307405
(lp2560
I2582
aI2812
aI4653
asI471246
(lp2561
I3771
aI2537
aI6076
asI356560
(lp2562
I3892
aI3849
aI4745
asI118136
(lp2563
I4082
aI2288
aI2664
asI302659
(lp2564
I4487
aI3299
aI4372
asI660277
(lp2565
I3823
aI2039
aI7743
asI471254
(lp2566
I4173
aI2238
aI6016
asI463063
(lp2567
I3335
aI3001
aI6380
asI272926
(lp2568
I3556
aI2139
aI4450
asI356571
(lp2569
I4086
aI3902
aI4721
asI585948
(lp2570
I3885
aI3247
aI7023
asI4512695
(lp2571
I4394
aI2381
aI4137
asI389346
(lp2572
I2709
aI3153
aI5261
asI553188
(lp2573
I2434
aI1790
aI6733
asI446693
(lp2574
I2690
aI2698
aI5826
asI217318
(lp2575
I3712
aI3631
aI4155
asI495847
(lp2576
I1938
aI3478
aI6668
asI487656
(lp2577
I2017
aI2499
aI6193
asI256039
(lp2578
I2822
aI1988
aI4027
asI414418
(lp2579
I4809
aI3244
aI3028
asI180999
(lp2580
I3939
aI3982
aI3315
asI667889
(lp2581
I4107
aI2912
aI7730
asI585970
(lp2582
I3795
aI3454
aI7094
asI585976
(lp2583
I4345
aI2847
aI7169
asI610561
(lp2584
I2408
aI3662
aI7143
asI217346
(lp2585
I3472
aI3477
aI4151
asI495876
(lp2586
I2182
aI3231
aI6474
asI520453
(lp2587
I4674
aI2625
aI2982
asI381190
(lp2588
I2791
aI2245
aI5104
asI569607
(lp2589
I3042
aI2591
aI6734
asI217353
(lp2590
I4090
aI3846
aI4636
asI241930
(lp2591
I4715
aI3531
aI3971
asI602380
(lp2592
I2042
aI3606
aI7228
asI487695
(lp2593
I1973
aI2231
aI6406
asI365272
(lp2594
I4347
aI2843
aI4874
asI626964
(lp2595
I3768
aI3125
aI7274
asI241941
(lp2596
I4343
aI3574
aI3664
asI113623
(lp2597
I3763
aI3587
aI2806
asI4376
(lp2598
I3785
aI3815
aI1797
asI495897
(lp2599
I1980
aI3217
aI6718
asI381212
(lp2600
I3869
aI2504
aI5233
asI151837
(lp2601
I4161
aI2881
aI3660
asI487711
(lp2602
I1903
aI2192
aI6138
asI323874
(lp2603
I2836
aI3267
aI4963
asI266971
(lp2604
I2887
aI3936
aI4236
asI405797
(lp2605
I3334
aI2876
aI5370
asI553254
(lp2606
I2421
aI1852
aI6827
asI495911
(lp2607
I2465
aI3379
aI6744
asI45352
(lp2608
I2602
aI3748
aI2204
asI348457
(lp2609
I4521
aI2644
aI5100
asI45354
(lp2610
I3125
aI4246
aI2130
asI45356
(lp2611
I2990
aI3289
aI2178
asI356655
(lp2612
I4065
aI3660
aI4532
asI672761
(lp2613
I3972
aI2558
aI7434
asI504114
(lp2614
I2769
aI2956
aI6459
asI531254
(lp2615
I3490
aI3625
aI6380
asI250165
(lp2616
I2236
aI3411
aI4243
asI602423
(lp2617
I2141
aI3462
aI7348
asI307512
(lp2618
I3810
aI2095
aI5051
asI69958
(lp2619
I4192
aI2272
aI2371
asI529121
(lp2620
I3727
aI3467
aI5778
asI602441
(lp2621
I2170
aI3214
aI7200
asI383134
(lp2622
I2593
aI1889
aI5459
asI45391
(lp2623
I2554
aI3690
aI2266
asI586064
(lp2624
I4178
aI3077
aI7423
asI381265
(lp2625
I4087
aI2675
aI5219
asI242403
(lp2626
I4326
aI3523
aI3909
asI12629
(lp2627
I3785
aI2618
aI2526
asI602455
(lp2628
I2203
aI3290
aI7202
asI398052
(lp2629
I4301
aI2327
aI5709
asI431023
(lp2630
I4449
aI3238
aI5488
asI315744
(lp2631
I2389
aI3564
aI4945
asI45409
(lp2632
I2529
aI3628
aI2247
asI160098
(lp2633
I4243
aI2302
aI3302
asI446825
(lp2634
I2694
aI2779
aI5804
asI373099
(lp2635
I4002
aI3092
aI5685
asI250220
(lp2636
I2301
aI3091
aI4268
asI151917
(lp2637
I3781
aI3958
aI3240
asI61806
(lp2638
I3982
aI2786
aI2105
asI520559
(lp2639
I3966
aI2147
aI6430
asI4464
(lp2640
I3372
aI3438
aI1858
asI373105
(lp2641
I4064
aI2760
aI5437
asI143731
(lp2642
I2889
aI4080
aI3361
asI22590
(lp2643
I4232
aI3222
aI2431
asI455030
(lp2644
I3064
aI3030
aI5600
asI610679
(lp2645
I2779
aI3660
aI7220
asI456767
(lp2646
I3359
aI1886
aI6135
asI495996
(lp2647
I2607
aI3283
aI6678
asI25322
(lp2648
I3844
aI3876
aI4216
asI340350
(lp2649
I3754
aI3568
aI4707
asI629731
(lp2650
I3711
aI3689
aI7478
asI496003
(lp2651
I1909
aI3619
aI6502
asI517072
(lp2652
I3388
aI3628
aI7492
asI487814
(lp2653
I2152
aI2217
aI6285
asI446856
(lp2654
I3901
aI2761
aI6126
asI520940
(lp2655
I3420
aI2107
aI6208
asI381324
(lp2656
I3587
aI2117
aI5696
asI227394
(lp2657
I4240
aI3731
aI3531
asI160142
(lp2658
I4394
aI2790
aI3567
asI397713
(lp2659
I3439
aI1944
aI5305
asI315794
(lp2660
I2576
aI3638
aI4899
asI471443
(lp2661
I4353
aI2982
aI6074
asI373142
(lp2662
I2795
aI2479
aI5991
asI241659
(lp2663
I4486
aI3010
aI3949
asI520600
(lp2664
I4350
aI2315
aI6413
asI290936
(lp2665
I4192
aI3584
aI4320
asI29083
(lp2666
I4225
aI3221
aI1943
asI463261
(lp2667
I4424
aI4233
aI2072
asI446880
(lp2668
I3152
aI1925
aI6527
asI381346
(lp2669
I3068
aI2000
aI5138
asI446884
(lp2670
I3595
aI2558
aI6094
asI582385
(lp2671
I3692
aI2215
aI6948
asI307625
(lp2672
I3575
aI3685
aI4773
asI512426
(lp2673
I3586
aI2533
aI6714
asI469063
(lp2674
I3776
aI2548
aI6137
asI324013
(lp2675
I3852
aI3464
aI5057
asI496046
(lp2676
I2466
aI3601
aI6539
asI478621
(lp2677
I4350
aI2105
aI5982
asI307637
(lp2678
I2664
aI2656
aI4987
asI79191
(lp2679
I4995
aI2753
aI2237
asI184762
(lp2680
I4696
aI2441
aI3333
asI561595
(lp2681
I2755
aI3402
aI6727
asI537020
(lp2682
I4267
aI2308
aI6295
asI631541
(lp2683
I4082
aI2317
aI7632
asI4544
(lp2684
I3331
aI3303
aI2003
asI487874
(lp2685
I2025
aI2629
aI6407
asI356803
(lp2686
I3991
aI3510
aI4550
asI241948
(lp2687
I4729
aI3492
aI3890
asI105572
(lp2688
I4798
aI3527
aI3127
asI307655
(lp2689
I2838
aI2480
aI5218
asI283086
(lp2690
I3718
aI3931
aI4420
asI475066
(lp2691
I3801
aI3717
aI5960
asI37330
(lp2692
I4898
aI3178
aI2850
asI263100
(lp2693
I4481
aI2127
aI4856
asI315865
(lp2694
I2184
aI3906
aI4888
asI143837
(lp2695
I3431
aI3891
aI3493
asI381406
(lp2696
I2778
aI1937
aI5135
asI373215
(lp2697
I3444
aI2659
aI5581
asI369227
(lp2698
I4194
aI3038
aI4834
asI307683
(lp2699
I4240
aI3170
aI4916
asI307684
(lp2700
I3618
aI3433
aI5111
asI209382
(lp2701
I3172
aI3641
aI3583
asI94697
(lp2702
I4448
aI4175
aI2910
asI315882
(lp2703
I2275
aI3753
aI4995
asI61932
(lp2704
I3910
aI2717
aI2456
asI438769
(lp2705
I3213
aI4140
aI1951
asI223315
(lp2706
I3950
aI2073
aI4074
asI176894
(lp2707
I4193
aI3556
aI3601
asI179625
(lp2708
I4293
aI4196
aI3396
asI4600
(lp2709
I3823
aI3002
aI2749
asI463354
(lp2710
I2887
aI3679
aI6359
asI4603
(lp2711
I2963
aI3896
aI1777
asI373249
(lp2712
I2860
aI2184
aI5627
asI21976
(lp2713
I3272
aI3986
aI3370
asI397829
(lp2714
I3241
aI2376
aI5411
asI21002
(lp2715
I3842
aI2929
aI1830
asI38616
(lp2716
I5002
aI3111
aI1977
asI348685
(lp2717
I4409
aI2978
aI4963
asI455184
(lp2718
I3396
aI1935
aI5732
asI463377
(lp2719
I3493
aI3396
aI6275
asI12818
(lp2720
I3431
aI3408
aI1862
asI625917
(lp2721
I3395
aI3040
aI7037
asI400814
(lp2722
I3464
aI2726
aI5176
asI324118
(lp2723
I2716
aI3380
aI4504
asI526425
(lp2724
I3603
aI3133
aI6401
asI332313
(lp2725
I3533
aI2003
aI4784
asI307738
(lp2726
I2274
aI2581
aI4914
asI266781
(lp2727
I3089
aI3789
aI4110
asI598789
(lp2728
I1927
aI2469
aI7336
asI307747
(lp2729
I2941
aI2294
aI4975
asI377606
(lp2730
I3152
aI2667
aI5155
asI520742
(lp2731
I3489
aI2154
aI6175
asI482737
(lp2732
I4347
aI2847
aI5825
asI532717
(lp2733
I4383
aI1854
aI6666
asI223324
(lp2734
I3867
aI2116
aI3874
asI279303
(lp2735
I4415
aI3067
aI4827
asI463404
(lp2736
I3867
aI3266
aI6908
asI160301
(lp2737
I4384
aI2317
aI3693
asI378973
(lp2738
I2810
aI3416
aI5342
asI115464
(lp2739
I4325
aI3943
aI3052
asI168498
(lp2740
I4055
aI4106
aI3253
asI348724
(lp2741
I4525
aI2585
aI5083
asI347736
(lp2742
I3663
aI1931
aI4783
asI273844
(lp2743
I3247
aI2195
aI4856
asI94780
(lp2744
I3230
aI3044
aI2828
asI184893
(lp2745
I4845
aI2571
aI3379
asI414271
(lp2746
I4002
aI2335
aI7148
asI258624
(lp2747
I2847
aI1939
aI4548
asI670035
(lp2748
I3635
aI3633
aI7711
asI356933
(lp2749
I3744
aI3770
aI4554
asI4678
(lp2750
I2528
aI3695
aI1963
asI62023
(lp2751
I4155
aI2874
aI2416
asI545352
(lp2752
I3174
aI3516
aI7509
asI383074
(lp2753
I4208
aI2329
aI5342
asI520783
(lp2754
I3683
aI1868
aI6204
asI160336
(lp2755
I3808
aI2398
aI3367
asI37458
(lp2756
I3644
aI1838
aI5505
asI143956
(lp2757
I2714
aI3934
aI3271
asI167353
(lp2758
I3597
aI4162
aI3278
asI307800
(lp2759
I2499
aI2547
aI5057
asI291419
(lp2760
I4031
aI3476
aI4157
asI45661
(lp2761
I4041
aI4057
aI2398
asI340574
(lp2762
I3217
aI3593
aI4875
asI526437
(lp2763
I4186
aI2611
aI6445
asI610912
(lp2764
I3037
aI3524
aI7213
asI610914
(lp2765
I2871
aI3674
aI7228
asI307811
(lp2766
I2341
aI2721
aI4865
asI397925
(lp2767
I4280
aI2815
aI5388
asI111206
(lp2768
I3882
aI3190
aI3367
asI356967
(lp2769
I4108
aI3899
aI4561
asI627307
(lp2770
I3822
aI3572
aI7294
asI414317
(lp2771
I3609
aI2713
aI5446
asI193134
(lp2772
I2763
aI2746
aI4286
asI467979
(lp2773
I4448
aI2164
aI5928
asI520817
(lp2774
I3853
aI1886
aI6229
asI660243
(lp2775
I4219
aI2578
aI7877
asI381556
(lp2776
I2594
aI2063
aI5198
asI362619
(lp2777
I4418
aI1988
aI4848
asI452713
(lp2778
I2635
aI3522
aI6321
asI193144
(lp2779
I2425
aI2938
aI3979
asI78458
(lp2780
I4038
aI4116
aI2146
asI62075
(lp2781
I4015
aI2966
aI2557
asI438908
(lp2782
I3596
aI2371
aI6494
asI522347
(lp2783
I3500
aI1887
aI6593
asI230913
(lp2784
I4616
aI3258
aI4446
asI414345
(lp2785
I3969
aI2700
aI5482
asI4746
(lp2786
I4203
aI3268
aI2758
asI385815
(lp2787
I3084
aI3665
aI5135
asI438924
(lp2788
I2910
aI2661
aI6356
asI414000
(lp2789
I4143
aI1871
aI5587
asI193166
(lp2790
I2354
aI2534
aI4171
asI463504
(lp2791
I3493
aI3668
aI6123
asI484120
(lp2792
I4382
aI2507
aI6435
asI305129
(lp2793
I2661
aI2098
aI5085
asI8919667
(lp2794
I4969
aI3270
aI2887
asI234133
(lp2795
I4141
aI4106
aI3698
asI471703
(lp2796
I4164
aI4107
aI3016
asI294340
(lp2797
I4175
aI3891
aI4437
asI414362
(lp2798
I4357
aI2890
aI6213
asI422557
(lp2799
I3651
aI3543
aI5269
asI368415
(lp2800
I4561
aI3153
aI4841
asI374896
(lp2801
I3457
aI2965
aI5172
asI479906
(lp2802
I4356
aI2115
aI5770
asI176923
(lp2803
I4098
aI3336
aI3494
asI613830
(lp2804
I3623
aI1851
aI7490
asI438950
(lp2805
I2049
aI3340
aI5896
asI307880
(lp2806
I3053
aI2208
aI5142
asI250537
(lp2807
I2327
aI3675
aI4430
asI119466
(lp2808
I4513
aI2752
aI2833
asI549543
(lp2809
I2235
aI3680
aI6752
asI266928
(lp2810
I2876
aI3582
aI4490
asI455347
(lp2811
I3362
aI2726
aI5622
asI406196
(lp2812
I3394
aI3661
aI5829
asI451358
(lp2813
I2779
aI3729
aI5791
asI86712
(lp2814
I2833
aI3430
aI2632
asI682100
(lp2815
I2820
aI2212
aI5688
asI45755
(lp2816
I2729
aI3768
aI2281
asI45757
(lp2817
I3586
aI3327
aI2208
asI545470
(lp2818
I1919
aI2847
aI6671
asI204781
(lp2819
I3234
aI2886
aI5346
asI82720
(lp2820
I4959
aI3273
aI2177
asI170376
(lp2821
I4048
aI4104
aI3569
asI471747
(lp2822
I3713
aI3132
aI5657
asI38603
(lp2823
I5002
aI3339
aI2239
asI529281
(lp2824
I3808
aI3339
aI6236
asI496327
(lp2825
I2636
aI1838
aI6435
asI176841
(lp2826
I4727
aI3292
aI3979
asI660170
(lp2827
I3285
aI2057
aI7714
asI152267
(lp2828
I4423
aI2167
aI3756
asI373538
(lp2829
I2878
aI3340
aI5479
asI414416
(lp2830
I4184
aI2481
aI5348
asI411768
(lp2831
I3775
aI3128
aI5232
asI618831
(lp2832
I3264
aI3605
aI7002
asI45779
(lp2833
I2620
aI3598
aI2253
asI13015
(lp2834
I3409
aI3154
aI1713
asI250584
(lp2835
I2346
aI3264
aI4425
asI41764
(lp2836
I4697
aI3731
aI1785
asI488154
(lp2837
I1891
aI2564
aI6265
asI13019
(lp2838
I3753
aI2913
aI1853
asI427239
(lp2839
I4490
aI2694
aI5431
asI488987
(lp2840
I2005
aI2515
aI6483
asI155374
(lp2841
I3369
aI3310
aI3517
asI673915
(lp2842
I4324
aI3132
aI7782
asI316132
(lp2843
I2329
aI3538
aI5284
asI283366
(lp2844
I3800
aI3892
aI4542
asI250599
(lp2845
I2914
aI3235
aI4530
asI673916
(lp2846
I4364
aI2864
aI7785
asI406252
(lp2847
I3537
aI3231
aI6245
asI362195
(lp2848
I4574
aI1973
aI4796
asI209646
(lp2849
I2977
aI3848
aI3662
asI45807
(lp2850
I2749
aI3544
aI2379
asI176880
(lp2851
I4838
aI3482
aI3330
asI607016
(lp2852
I4217
aI2644
aI7846
asI226035
(lp2853
I3890
aI2623
aI4105
asI119540
(lp2854
I4179
aI2247
aI2917
asI226040
(lp2855
I3664
aI2885
aI4409
asI13050
(lp2856
I4442
aI3498
aI2065
asI111356
(lp2857
I4810
aI2820
aI3484
asI168702
(lp2858
I3489
aI4210
aI3237
asI242431
(lp2859
I4744
aI3503
aI3848
asI471809
(lp2860
I3740
aI2804
aI5510
asI50333
(lp2861
I3179
aI2288
aI2380
asI422699
(lp2862
I4148
aI3075
aI5656
asI480004
(lp2863
I4166
aI1790
aI5777
asI160518
(lp2864
I3973
aI2132
aI3556
asI18561
(lp2865
I3957
aI2290
aI1882
asI341413
(lp2866
I3566
aI3326
aI4893
asI226058
(lp2867
I4684
aI2707
aI3923
asI54028
(lp2868
I4250
aI2739
aI3098
asI422669
(lp2869
I3889
aI3534
aI5268
asI553745
(lp2870
I3280
aI2301
aI7438
asI135954
(lp2871
I4495
aI3310
aI2754
asI583811
(lp2872
I3986
aI2982
aI6622
asI293599
(lp2873
I4035
aI3913
aI4213
asI13078
(lp2874
I3670
aI3859
aI1854
asI24025
(lp2875
I3856
aI3965
aI1988
asI267055
(lp2876
I2952
aI3831
aI4476
asI176925
(lp2877
I4289
aI3365
aI3507
asI488223
(lp2878
I2321
aI2367
aI6303
asI21280
(lp2879
I4478
aI3043
aI2266
asI45858
(lp2880
I3128
aI4129
aI2334
asI226083
(lp2881
I4591
aI3341
aI4362
asI406309
(lp2882
I3951
aI3346
aI5493
asI381735
(lp2883
I2921
aI2013
aI5299
asI267051
(lp2884
I4485
aI3446
aI4443
asI250668
(lp2885
I2384
aI3351
aI4373
asI585911
(lp2886
I3806
aI3648
aI6768
asI504623
(lp2887
I2730
aI3266
aI6377
asI103219
(lp2888
I3470
aI3540
aI2979
asI613854
(lp2889
I3215
aI1798
aI7439
asI316215
(lp2890
I2143
aI3626
aI4963
asI45881
(lp2891
I2804
aI3695
aI2423
asI439098
(lp2892
I2733
aI2983
aI6255
asI463675
(lp2893
I3512
aI3696
aI5616
asI86845
(lp2894
I2636
aI2829
aI2624
asI308031
(lp2895
I2144
aI3346
aI4887
asI48608
(lp2896
I2948
aI3865
aI2522
asI602946
(lp2897
I2542
aI3624
aI7251
asI567435
(lp2898
I3982
aI1960
aI7192
asI152389
(lp2899
I3071
aI2786
aI3658
asI193353
(lp2900
I2960
aI2550
aI3890
asI619340
(lp2901
I3054
aI3312
aI7167
asI4941
(lp2902
I2701
aI3413
aI2034
asI373584
(lp2903
I2113
aI2479
aI5482
asI275282
(lp2904
I3565
aI3294
aI4773
asI86867
(lp2905
I2506
aI2794
aI2683
asI426941
(lp2906
I4216
aI2361
aI5477
asI234325
(lp2907
I4240
aI4091
aI3772
asI209750
(lp2908
I3533
aI3858
aI3610
asI176986
(lp2909
I4441
aI3731
aI3438
asI365370
(lp2910
I4346
aI2909
aI4880
asI578398
(lp2911
I3788
aI1768
aI6679
asI176991
(lp2912
I4179
aI3584
aI3374
asI422755
(lp2913
I3876
aI3435
aI5358
asI223574
(lp2914
I4229
aI2534
aI3657
asI48614
(lp2915
I2856
aI3714
aI2650
asI488294
(lp2916
I2205
aI2523
aI6563
asI103274
(lp2917
I4353
aI3545
aI2870
asI562027
(lp2918
I2476
aI3588
aI6614
asI84728
(lp2919
I4890
aI3765
aI2124
asI467773
(lp2920
I4239
aI2369
aI5976
asI200168
(lp2921
I3081
aI2138
aI3682
asI488306
(lp2922
I2168
aI2604
aI6577
asI177014
(lp2923
I3451
aI3848
aI4807
asI406391
(lp2924
I3454
aI3368
aI5602
asI368050
(lp2925
I4580
aI3146
aI4818
asI481428
(lp2926
I4416
aI2891
aI5980
asI471930
(lp2927
I3802
aI3162
aI6339
asI4987
(lp2928
I2708
aI3979
aI3005
asI373628
(lp2929
I4099
aI3238
aI5931
asI562046
(lp2930
I2534
aI3604
aI6597
asI4993
(lp2931
I2886
aI4138
aI2695
asI85245
(lp2932
I4982
aI3722
aI2171
asI529283
(lp2933
I3845
aI3610
aI6737
asI308100
(lp2934
I3140
aI3515
aI4963
asI4997
(lp2935
I2544
aI3869
aI1514
asI45959
(lp2936
I2575
aI3846
aI2274
asI406408
(lp2937
I3278
aI3034
aI5477
asI512905
(lp2938
I3108
aI2675
aI6331
asI193418
(lp2939
I2574
aI3069
aI3759
asI5003
(lp2940
I3831
aI3958
aI2274
asI8350
(lp2941
I3021
aI2298
aI1766
asI316304
(lp2942
I2636
aI3903
aI4930
asI373651
(lp2943
I4325
aI2937
aI6218
asI529300
(lp2944
I3747
aI3674
aI6508
asI529301
(lp2945
I3872
aI3492
aI6427
asI258966
(lp2946
I2985
aI2173
aI4529
asI529304
(lp2947
I3806
aI3608
aI6424
asI156484
(lp2948
I3839
aI4104
aI3170
asI529306
(lp2949
I3551
aI3587
aI6402
asI28948
(lp2950
I4666
aI3014
aI1749
asI545692
(lp2951
I2397
aI3000
aI6593
asI5021
(lp2952
I3102
aI4107
aI2140
asI406430
(lp2953
I3942
aI4261
aI1567
asI394053
(lp2954
I3043
aI3465
aI5738
asI5025
(lp2955
I2982
aI4023
aI2219
asI5027
(lp2956
I3206
aI4108
aI1912
asI267172
(lp2957
I2922
aI3673
aI4411
asI235825
(lp2958
I4178
aI3863
aI3955
asI452764
(lp2959
I3120
aI3681
aI5773
asI521131
(lp2960
I3415
aI1750
aI6948
asI406444
(lp2961
I3434
aI3511
aI5451
asI373677
(lp2962
I2739
aI2744
aI5494
asI311958
(lp2963
I2431
aI3484
aI4980
asI383133
(lp2964
I2863
aI2059
aI5321
asI431026
(lp2965
I4283
aI3252
aI5444
asI5043
(lp2966
I2889
aI3932
aI1903
asI431028
(lp2967
I4463
aI3110
aI5429
asI603061
(lp2968
I2296
aI3587
aI7371
asI529334
(lp2969
I3307
aI3494
aI6734
asI308151
(lp2970
I4524
aI2191
aI5427
asI5048
(lp2971
I3028
aI4115
aI1835
asI471993
(lp2972
I3670
aI2886
aI6086
asI562106
(lp2973
I2513
aI3624
aI6714
asI504763
(lp2974
I2542
aI3232
aI6291
asI439228
(lp2975
I3203
aI2638
aI6655
asI471999
(lp2976
I3838
aI3052
aI5976
asI447425
(lp2977
I3704
aI2460
aI3091
asI160708
(lp2978
I3623
aI2347
aI3685
asI5061
(lp2979
I3088
aI4162
aI1942
asI496582
(lp2980
I2593
aI1755
aI6235
asI472007
(lp2981
I4315
aI2778
aI6881
asI472008
(lp2982
I3787
aI2879
aI5873
asI472009
(lp2983
I4459
aI3810
aI2894
asI545738
(lp2984
I2096
aI3156
aI6702
asI373707
(lp2985
I2635
aI2729
aI5474
asI37836
(lp2986
I4875
aI2716
aI1949
asI634388
(lp2987
I4024
aI2805
aI7170
asI332751
(lp2988
I3257
aI1933
aI4726
asI398288
(lp2989
I3067
aI2229
aI5395
asI507817
(lp2990
I2890
aI3685
aI6717
asI283605
(lp2991
I3828
aI3965
aI4445
asI431062
(lp2992
I4367
aI3218
aI5491
asI234455
(lp2993
I3852
aI4071
aI3800
asI406488
(lp2994
I3832
aI3257
aI5584
asI455641
(lp2995
I4683
aI2430
aI4075
asI488411
(lp2996
I1927
aI2602
aI6307
asI609786
(lp2997
I2790
aI3300
aI7723
asI455646
(lp2998
I3697
aI1873
aI5956
asI440485
(lp2999
I2141
aI3758
aI5669
asI537570
(lp3000
I4004
aI2635
aI6367
asI250852
(lp3001
I3979
aI3072
aI5165
asI162475
(lp3002
I4176
aI3326
aI3567
asI97280
(lp3003
I3461
aI2274
aI3014
asI431080
(lp3004
I4446
aI2995
aI5985
asI472041
(lp3005
I3646
aI3436
aI5728
asI37867
(lp3006
I4803
aI2663
aI2072
asI496620
(lp3007
I3056
aI2487
aI6190
asI381935
(lp3008
I3114
aI2272
aI5137
asI54256
(lp3009
I3084
aI3138
aI2731
asI381937
(lp3010
I2974
aI1887
aI5274
asI594930
(lp3011
I4377
aI3025
aI6700
asI300019
(lp3012
I4325
aI2242
aI5746
asI13300
(lp3013
I3309
aI3519
aI2929
asI13301
(lp3014
I3355
aI3439
aI2039
asI312506
(lp3015
I3089
aI2645
aI5250
asI627704
(lp3016
I4077
aI2741
aI7493
asI373755
(lp3017
I3138
aI2818
aI5722
asI594940
(lp3018
I4372
aI2839
aI6840
asI594942
(lp3019
I4322
aI3175
aI7123
asI390144
(lp3020
I3049
aI3030
aI5271
asI283649
(lp3021
I3574
aI3367
aI5304
asI305323
(lp3022
I2156
aI2654
aI4624
asI96762
(lp3023
I4253
aI3070
aI2896
asI316422
(lp3024
I2444
aI3446
aI5111
asI349605
(lp3025
I4449
aI3011
aI4804
asI422922
(lp3026
I3928
aI3835
aI5383
asI287575
(lp3027
I3716
aI2715
aI4326
asI529420
(lp3028
I3801
aI3690
aI6530
asI676880
(lp3029
I3995
aI3253
aI5883
asI609795
(lp3030
I2738
aI3314
aI7389
asI5140
(lp3031
I2544
aI4012
aI1549
asI594966
(lp3032
I4197
aI3197
aI7235
asI857
(lp3033
I2851
aI3505
aI2010
asI594969
(lp3034
I4367
aI2747
aI7092
asI365595
(lp3035
I4221
aI3106
aI4776
asI529436
(lp3036
I3471
aI3688
aI6534
asI611357
(lp3037
I3116
aI3665
aI7511
asI562207
(lp3038
I2649
aI3507
aI6636
asI627744
(lp3039
I3702
aI3697
aI7452
asI349217
(lp3040
I4289
aI2779
aI5584
asI488482
(lp3041
I1891
aI2678
aI6407
asI349221
(lp3042
I3825
aI2951
aI4877
asI85007
(lp3043
I4766
aI3547
aI2144
asI349225
(lp3044
I3867
aI2988
aI4917
asI103466
(lp3045
I4749
aI3710
aI3190
asI618597
(lp3046
I3372
aI3521
aI7413
asI360323
(lp3047
I4514
aI2405
aI5434
asI349232
(lp3048
I4274
aI3317
aI4904
asI283699
(lp3049
I3547
aI3890
aI4472
asI35718
(lp3050
I4909
aI2466
aI1946
asI332854
(lp3051
I3227
aI2364
aI4760
asI349239
(lp3052
I3995
aI2828
aI4974
asI349240
(lp3053
I4587
aI3025
aI4851
asI452788
(lp3054
I3036
aI3492
aI6181
asI513082
(lp3055
I3335
aI2058
aI6582
asI447549
(lp3056
I2817
aI2089
aI6636
asI8918079
(lp3057
I3714
aI2087
aI7084
asI529472
(lp3058
I3453
aI3676
aI6129
asI424519
(lp3059
I4378
aI3026
aI5240
asI538918
(lp3060
I4276
aI3114
aI6082
asI95301
(lp3061
I4401
aI4183
aI2834
asI292121
(lp3062
I4183
aI3559
aI4193
asI609804
(lp3063
I2977
aI3378
aI7488
asI250955
(lp3064
I2308
aI3358
aI4424
asI488524
(lp3065
I3108
aI2828
aI5381
asI627789
(lp3066
I3590
aI3694
aI7604
asI259155
(lp3067
I4067
aI1938
aI4734
asI250965
(lp3068
I3668
aI3674
aI4565
asI177239
(lp3069
I4220
aI3536
aI3603
asI316505
(lp3070
I2654
aI3524
aI6793
asI5211
(lp3071
I2628
aI4242
aI1820
asI292869
(lp3072
I4179
aI3402
aI4702
asI496733
(lp3073
I2395
aI1985
aI6124
asI177246
(lp3074
I4281
aI3662
aI3490
asI533921
(lp3075
I4095
aI1774
aI6255
asI439392
(lp3076
I1999
aI3032
aI5907
asI463969
(lp3077
I3125
aI3538
aI5769
asI70754
(lp3078
I3941
aI2582
aI2754
asI373861
(lp3079
I2422
aI2377
aI5594
asI70758
(lp3080
I4743
aI2716
aI3097
asI496743
(lp3081
I3302
aI2480
aI6991
asI455785
(lp3082
I3710
aI1997
aI5822
asI5228
(lp3083
I2808
aI3956
aI1685
asI163346
(lp3084
I4725
aI2518
aI3597
asI465085
(lp3085
I3417
aI3633
aI5950
asI406642
(lp3086
I3851
aI3501
aI5478
asI488563
(lp3087
I1982
aI2380
aI6613
asI5236
(lp3088
I2615
aI3918
aI1609
asI653502
(lp3089
I3448
aI2233
aI7723
asI627830
(lp3090
I3513
aI3517
aI7496
asI406647
(lp3091
I3743
aI3571
aI5434
asI144505
(lp3092
I2502
aI4203
aI3346
asI513147
(lp3093
I3238
aI2567
aI6441
asI31886
(lp3094
I4475
aI3816
aI1613
asI308349
(lp3095
I2118
aI2515
aI5013
asI463998
(lp3096
I3446
aI3756
aI5862
asI259202
(lp3097
I2717
aI2112
aI4467
asI398468
(lp3098
I3611
aI2391
aI5365
asI128951
(lp3099
I4934
aI2488
aI2795
asI103560
(lp3100
I3424
aI3589
aI2983
asI193676
(lp3101
I2473
aI3305
aI3830
asI237245
(lp3102
I4750
aI2500
aI3774
asI373902
(lp3103
I2863
aI2801
aI5765
asI406671
(lp3104
I3501
aI3828
aI5493
asI447632
(lp3105
I3018
aI2761
aI5997
asI11800
(lp3106
I4539
aI3379
aI4956
asI519955
(lp3107
I4764
aI2370
aI2120
asI294425
(lp3108
I4123
aI2937
aI4745
asI383172
(lp3109
I2540
aI2189
aI5355
asI8918173
(lp3110
I1914
aI2810
aI7082
asI595102
(lp3111
I4372
aI2725
aI7035
asI223429
(lp3112
I4034
aI2138
aI3527
asI496801
(lp3113
I3089
aI1830
aI6036
asI595106
(lp3114
I4245
aI2859
aI7146
asI163355
(lp3115
I4411
aI2855
aI3620
asI111784
(lp3116
I3695
aI2708
aI3153
asI562345
(lp3117
I2608
aI3637
aI6708
asI280775
(lp3118
I3942
aI3828
aI4488
asI660338
(lp3119
I3256
aI2039
aI7565
asI169134
(lp3120
I4151
aI4057
aI3362
asI535568
(lp3121
I4304
aI2664
aI6343
asI259249
(lp3122
I4040
aI2377
aI4611
asI439103
(lp3123
I4270
aI2708
aI5881
asI447669
(lp3124
I2609
aI2452
aI6038
asI545974
(lp3125
I1949
aI3474
aI6588
asI373943
(lp3126
I2104
aI2575
aI5702
asI193722
(lp3127
I2454
aI3075
aI4012
asI226033
(lp3128
I3978
aI2832
aI3752
asI382141
(lp3129
I3098
aI3062
aI5146
asI443721
(lp3130
I2877
aI1893
aI6109
asI308416
(lp3131
I3714
aI3574
aI5361
asI87233
(lp3132
I2498
aI3230
aI2657
asI210116
(lp3133
I3043
aI3923
aI3803
asI521078
(lp3134
I4094
aI2783
aI6111
asI251078
(lp3135
I3494
aI3869
aI4454
asI406727
(lp3136
I3246
aI3546
aI5611
asI660682
(lp3137
I3823
aI2041
aI7808
asI480459
(lp3138
I4443
aI1892
aI5913
asI5325
(lp3139
I2928
aI4139
aI2214
asI21710
(lp3140
I4959
aI2249
aI2694
asI107108
(lp3141
I3717
aI2646
aI2523
asI447701
(lp3142
I2639
aI2941
aI5517
asI101237
(lp3143
I3345
aI3739
aI2534
asI496856
(lp3144
I2459
aI1839
aI6142
asI455898
(lp3145
I3568
aI1806
aI5885
asI38109
(lp3146
I4981
aI3241
aI2085
asI160992
(lp3147
I4180
aI3541
aI4155
asI267489
(lp3148
I2942
aI3980
aI4069
asI193764
(lp3149
I4503
aI3282
aI4438
asI54503
(lp3150
I3149
aI3573
aI2092
asI242556
(lp3151
I4591
aI3248
aI3762
asI488684
(lp3152
I2289
aI2284
aI6696
asI406765
(lp3153
I4149
aI2926
aI6120
asI239537
(lp3154
I4651
aI3091
aI3590
asI175032
(lp3155
I4716
aI3374
aI3352
asI455925
(lp3156
I3445
aI1813
aI5898
asI193782
(lp3157
I2689
aI3033
aI3991
asI24105
(lp3158
I3927
aI3436
aI2855
asI333048
(lp3159
I4208
aI1976
aI4963
asI480505
(lp3160
I4442
aI1945
aI5919
asI439550
(lp3161
I2195
aI2855
aI6611
asI2261
(lp3162
I2762
aI3819
aI1501
asI619776
(lp3163
I2923
aI3664
aI7323
asI5380
(lp3164
I3076
aI4115
aI2093
asI324869
(lp3165
I4492
aI3117
aI5229
asI8934662
(lp3166
I2962
aI4217
aI2653
asI45953
(lp3167
I2906
aI3449
aI2533
asI251145
(lp3168
I2752
aI3431
aI4503
asI131400
(lp3169
I4548
aI2244
aI2939
asI13579
(lp3170
I4941
aI3652
aI2180
asI603405
(lp3171
I2736
aI3068
aI7652
asI21774
(lp3172
I3974
aI2861
aI1996
asI144655
(lp3173
I2555
aI4190
aI3436
asI259345
(lp3174
I3390
aI2582
aI4807
asI259346
(lp3175
I3145
aI2262
aI4484
asI111891
(lp3176
I3522
aI2804
aI3101
asI13589
(lp3177
I3891
aI2952
aI2363
asI324886
(lp3178
I2824
aI3661
aI4665
asI398615
(lp3179
I3090
aI2047
aI5456
asI529284
(lp3180
I3477
aI3611
aI6646
asI431387
(lp3181
I4264
aI3341
aI5195
asI603420
(lp3182
I2319
aI3555
aI7556
asI259357
(lp3183
I4019
aI3462
aI5044
asI529285
(lp3184
I3455
aI3473
aI6848
asI382243
(lp3185
I2934
aI2326
aI5275
asI95524
(lp3186
I4560
aI2646
aI2941
asI13606
(lp3187
I4315
aI3557
aI2825
asI118321
(lp3188
I4178
aI2684
aI2812
asI144681
(lp3189
I3249
aI3723
aI3493
asI267143
(lp3190
I2961
aI3747
aI4380
asI79148
(lp3191
I4031
aI3867
aI2483
asI24114
(lp3192
I4746
aI3591
aI3708
asI26332
(lp3193
I4665
aI2710
aI1725
asI316720
(lp3194
I3006
aI2620
aI5382
asI160648
(lp3195
I3520
aI2342
aI3395
asI161075
(lp3196
I3464
aI2296
aI3607
asI293149
(lp3197
I3794
aI3000
aI4513
asI374069
(lp3198
I3859
aI3844
aI4596
asI529289
(lp3199
I3555
aI3671
aI6436
asI546105
(lp3200
I2192
aI3185
aI6639
asI480570
(lp3201
I4371
aI1818
aI6078
asI166111
(lp3202
I3835
aI3353
aI3376
asI5436
(lp3203
I3051
aI4217
aI1683
asI40501
(lp3204
I4817
aI3556
aI1844
asI374080
(lp3205
I2052
aI3356
aI5014
asI390465
(lp3206
I3529
aI3340
aI5449
asI38210
(lp3207
I4459
aI2180
aI3921
asI267147
(lp3208
I2823
aI3515
aI4548
asI472390
(lp3209
I4064
aI3250
aI5651
asI488778
(lp3210
I1922
aI2399
aI6466
asI308555
(lp3211
I2482
aI3588
aI5050
asI464206
(lp3212
I3868
aI3750
aI5729
asI488783
(lp3213
I2980
aI2224
aI6967
asI21840
(lp3214
I3957
aI3100
aI2049
asI40504
(lp3215
I4685
aI3768
aI2060
asI529294
(lp3216
I3771
aI3302
aI6411
asI192057
(lp3217
I2864
aI2988
aI3652
asI456024
(lp3218
I3344
aI2320
aI5838
asI248036
(lp3219
I2504
aI2989
aI4562
asI532777
(lp3220
I4211
aI1952
aI6436
asI529340
(lp3221
I3815
aI3660
aI6481
asI546141
(lp3222
I2442
aI3310
aI6802
asI79198
(lp3223
I4726
aI2249
aI2870
asI79199
(lp3224
I4870
aI2321
aI2472
asI103312
(lp3225
I2859
aI3321
aI3417
asI382306
(lp3226
I2655
aI2059
aI5258
asI324964
(lp3227
I2793
aI3415
aI4639
asI308582
(lp3228
I3382
aI3847
aI4745
asI286045
(lp3229
I4638
aI2422
aI4369
asI390504
(lp3230
I3565
aI3328
aI5852
asI251241
(lp3231
I2811
aI3356
aI4606
asI79210
(lp3232
I4855
aI2313
aI2996
asI284014
(lp3233
I4150
aI2244
aI4270
asI79215
(lp3234
I4820
aI2720
aI2053
asI349552
(lp3235
I4316
aI2225
aI4789
asI79217
(lp3236
I4825
aI2483
aI2376
asI467859
(lp3237
I3765
aI2185
aI5922
asI333172
(lp3238
I4032
aI2996
aI4867
asI226677
(lp3239
I3886
aI2934
aI3626
asI382326
(lp3240
I2549
aI1895
aI5271
asI403689
(lp3241
I3320
aI3402
aI5549
asI21882
(lp3242
I3876
aI3446
aI1511
asI302655
(lp3243
I4460
aI3251
aI4307
asI193916
(lp3244
I3215
aI2552
aI4333
asI59626
(lp3245
I3867
aI2621
aI2232
asI38270
(lp3246
I4842
aI2789
aI2250
asI587137
(lp3247
I3883
aI3633
aI6672
asI21890
(lp3248
I4832
aI2837
aI1733
asI439684
(lp3249
I2239
aI3723
aI5820
asI13701
(lp3250
I3513
aI3648
aI3125
asI21894
(lp3251
I3771
aI3448
aI2079
asI183873
(lp3252
I4857
aI2343
aI3176
asI13704
(lp3253
I3224
aI3789
aI4155
asI13705
(lp3254
I4176
aI3876
aI2808
asI79242
(lp3255
I4821
aI2540
aI3014
asI488844
(lp3256
I2442
aI2634
aI6842
asI40514
(lp3257
I4806
aI3492
aI1967
asI79246
(lp3258
I4976
aI2286
aI2627
asI79247
(lp3259
I5000
aI2749
aI2470
asI103824
(lp3260
I3892
aI4045
aI2978
asI546193
(lp3261
I2080
aI3059
aI6767
asI46482
(lp3262
I2642
aI3323
aI2444
asI67561
(lp3263
I4029
aI3855
aI2388
asI161173
(lp3264
I3537
aI2317
aI3633
asI316822
(lp3265
I2765
aI3725
aI4975
asI414617
(lp3266
I3919
aI2569
aI5196
asI177235
(lp3267
I4252
aI3633
aI3460
asI21913
(lp3268
I4243
aI3193
aI3307
asI144794
(lp3269
I2692
aI4221
aI3373
asI33690
(lp3270
I4982
aI3693
aI1916
asI480671
(lp3271
I4136
aI1801
aI5901
asI166128
(lp3272
I4296
aI3864
aI3221
asI619938
(lp3273
I3330
aI3525
aI7352
asI314157
(lp3274
I3173
aI3730
aI4780
asI480678
(lp3275
I4353
aI2459
aI6008
asI382376
(lp3276
I2862
aI2142
aI5435
asI529308
(lp3277
I3707
aI3537
aI6357
asI406956
(lp3278
I3333
aI3502
aI5149
asI439726
(lp3279
I1917
aI2980
aI6013
asI333232
(lp3280
I4028
aI2117
aI5048
asI176675
(lp3281
I4297
aI3595
aI3494
asI259507
(lp3282
I2692
aI2185
aI4540
asI529310
(lp3283
I3798
aI3605
aI6632
asI223321
(lp3284
I4192
aI2342
aI3808
asI380489
(lp3285
I2439
aI3632
aI5268
asI259513
(lp3286
I2812
aI2003
aI4534
asI529850
(lp3287
I3880
aI3340
aI6223
asI46527
(lp3288
I3504
aI3877
aI2197
asI13760
(lp3289
I4755
aI3097
aI1670
asI89675
(lp3290
I4337
aI3589
aI2881
asI79307
(lp3291
I4878
aI2327
aI2725
asI431557
(lp3292
I4523
aI3209
aI5068
asI466098
(lp3293
I4195
aI2046
aI6088
asI382410
(lp3294
I2723
aI1982
aI5265
asI382411
(lp3295
I2798
aI2146
aI5205
asI406988
(lp3296
I3373
aI3834
aI5232
asI338667
(lp3297
I4407
aI3142
aI5257
asI13776
(lp3298
I2966
aI2253
aI3147
asI21969
(lp3299
I4485
aI3581
aI3389
asI619986
(lp3300
I3189
aI3577
aI7377
asI13780
(lp3301
I3099
aI4136
aI1536
asI564814
(lp3302
I3139
aI1981
aI6795
asI144856
(lp3303
I3388
aI3755
aI3522
asI439774
(lp3304
I3170
aI2546
aI6216
asI251359
(lp3305
I3215
aI3374
aI4531
asI38772
(lp3306
I4979
aI3413
aI1574
asI488932
(lp3307
I2409
aI2339
aI6639
asI398821
(lp3308
I3447
aI1972
aI5450
asI505319
(lp3309
I2536
aI2846
aI6674
asI144876
(lp3310
I2593
aI4199
aI3446
asI564818
(lp3311
I3360
aI1863
aI6962
asI87537
(lp3312
I2534
aI3341
aI2910
asI587250
(lp3313
I3893
aI3193
aI6646
asI7763
(lp3314
I3726
aI2699
aI2318
asI431017
(lp3315
I4408
aI3065
aI5266
asI348261
(lp3316
I4415
aI1999
aI4919
asI620028
(lp3317
I3152
aI3650
aI7388
asI439805
(lp3318
I2247
aI3176
aI6098
asI13822
(lp3319
I3261
aI3451
aI4429
asI533750
(lp3320
I4312
aI2207
aI6998
asI251395
(lp3321
I3240
aI1966
aI4608
asI79364
(lp3322
I4729
aI2857
aI2474
asI564822
(lp3323
I3358
aI1854
aI7090
asI636423
(lp3324
I2303
aI2295
aI5922
asI267180
(lp3325
I3158
aI3721
aI4482
asI179799
(lp3326
I4073
aI4193
aI3467
asI411906
(lp3327
I4118
aI2023
aI5329
asI431031
(lp3328
I4448
aI3100
aI5524
asI332717
(lp3329
I3176
aI2418
aI4722
asI497168
(lp3330
I2718
aI2357
aI6515
asI450136
(lp3331
I3355
aI3767
aI5836
asI130578
(lp3332
I4950
aI2603
aI2862
asI226222
(lp3333
I4037
aI2895
aI3509
asI5654
(lp3334
I3106
aI4098
aI2443
asI24153
(lp3335
I3684
aI4150
aI3391
asI22043
(lp3336
I5001
aI3215
aI2380
asI13852
(lp3337
I3899
aI3318
aI4538
asI22045
(lp3338
I4608
aI3759
aI1898
asI251423
(lp3339
I3364
aI3597
aI4859
asI22048
(lp3340
I3953
aI3284
aI3499
asI13858
(lp3341
I2602
aI3630
aI4568
asI478495
(lp3342
I4413
aI1884
aI5981
asI144935
(lp3343
I2970
aI4063
aI3356
asI497192
(lp3344
I2452
aI1951
aI6380
asI87596
(lp3345
I3632
aI4127
aI2785
asI361394
(lp3346
I4560
aI2789
aI4648
asI316974
(lp3347
I2917
aI2247
aI4819
asI316975
(lp3348
I2907
aI2247
aI5041
asI316976
(lp3349
I2672
aI2001
aI4986
asI316977
(lp3350
I2975
aI2473
aI4767
asI87602
(lp3351
I3085
aI3030
aI2779
asI529331
(lp3352
I3822
aI3526
aI6580
asI316980
(lp3353
I3405
aI2905
aI5018
asI316981
(lp3354
I2624
aI2023
aI4845
asI316982
(lp3355
I3174
aI2168
aI4917
asI316983
(lp3356
I3844
aI3162
aI4867
asI439864
(lp3357
I2162
aI3217
aI6044
asI251449
(lp3358
I2673
aI3445
aI4409
asI316986
(lp3359
I3626
aI2400
aI4727
asI478815
(lp3360
I4465
aI1924
aI5971
asI497212
(lp3361
I2469
aI1788
aI6291
asI194109
(lp3362
I2981
aI3148
aI4089
asI316990
(lp3363
I2816
aI2188
aI4952
asI87615
(lp3364
I4174
aI2337
aI3086
asI316992
(lp3365
I2897
aI2120
aI4950
asI46658
(lp3366
I2611
aI3298
aI2609
asI13891
(lp3367
I3800
aI2828
aI2470
asI356835
(lp3368
I4072
aI3594
aI4542
asI144971
(lp3369
I2803
aI4219
aI3394
asI448076
(lp3370
I2587
aI3097
aI5600
asI357965
(lp3371
I3933
aI3572
aI4799
asI668678
(lp3372
I4283
aI2849
aI7768
asI317009
(lp3373
I3134
aI2006
aI5199
asI374354
(lp3374
I2511
aI3391
aI5062
asI317011
(lp3375
I3084
aI2973
aI4713
asI665870
(lp3376
I4043
aI2104
aI7885
asI103353
(lp3377
I4134
aI4206
aI2864
asI317017
(lp3378
I2825
aI2276
aI4983
asI603738
(lp3379
I2728
aI2046
aI7441
asI603739
(lp3380
I2721
aI2286
aI7507
asI603742
(lp3381
I2428
aI2104
aI7424
asI595551
(lp3382
I4201
aI3081
aI6782
asI317026
(lp3383
I3211
aI2494
aI5175
asI603747
(lp3384
I3518
aI1933
aI7305
asI317028
(lp3385
I2997
aI2229
aI5012
asI87653
(lp3386
I3415
aI3774
aI2744
asI258243
(lp3387
I3267
aI2451
aI4380
asI120424
(lp3388
I4707
aI2730
aI3489
asI22121
(lp3389
I4666
aI3681
aI3167
asI241940
(lp3390
I4695
aI3591
aI3826
asI317037
(lp3391
I2594
aI1917
aI5092
asI603758
(lp3392
I2753
aI1836
aI7498
asI603759
(lp3393
I2859
aI1851
aI7451
asI226929
(lp3394
I4712
aI2991
aI3835
asI237030
(lp3395
I4705
aI2445
aI3723
asI87671
(lp3396
I2524
aI3445
aI2624
asI283621
(lp3397
I3890
aI3802
aI4685
asI603775
(lp3398
I2443
aI1848
aI7445
asI104064
(lp3399
I4818
aI2937
aI3225
asI84382
(lp3400
I4839
aI3326
aI2926
asI74671
(lp3401
I4267
aI3303
aI2121
asI341635
(lp3402
I3729
aI3747
aI4745
asI185988
(lp3403
I4587
aI3241
aI3468
asI514326
(lp3404
I3475
aI2902
aI6136
asI358022
(lp3405
I3859
aI3754
aI4760
asI87687
(lp3406
I4341
aI3542
aI3030
asI187232
(lp3407
I4700
aI2998
aI3268
asI317066
(lp3408
I3060
aI1928
aI4629
asI532781
(lp3409
I4365
aI1957
aI6653
asI456333
(lp3410
I3853
aI1889
aI5865
asI87695
(lp3411
I2728
aI2892
aI2762
asI308881
(lp3412
I4176
aI2139
aI5367
asI562834
(lp3413
I2522
aI3607
aI6765
asI457103
(lp3414
I3487
aI2376
aI6263
asI276118
(lp3415
I3769
aI2921
aI4406
asI603800
(lp3416
I3943
aI2109
aI7439
asI439961
(lp3417
I2555
aI3368
aI5977
asI5786
(lp3418
I3152
aI4237
aI1729
asI251547
(lp3419
I3444
aI3695
aI4420
asI538268
(lp3420
I4352
aI2499
aI6494
asI510234
(lp3421
I3182
aI1776
aI6506
asI629780
(lp3422
I4123
aI1972
aI7582
asI95173
(lp3423
I3528
aI2435
aI4257
asI358050
(lp3424
I3999
aI3556
aI4728
asI96539
(lp3425
I4047
aI2235
aI3122
asI177094
(lp3426
I4269
aI3557
aI3052
asI531846
(lp3427
I3550
aI3374
aI6415
asI456359
(lp3428
I3342
aI2164
aI5890
asI480937
(lp3429
I4236
aI2275
aI5925
asI202410
(lp3430
I3219
aI2837
aI3655
asI589426
(lp3431
I4237
aI1771
aI6409
asI530717
(lp3432
I3543
aI3653
aI6318
asI489137
(lp3433
I1961
aI2237
aI6583
asI333490
(lp3434
I4059
aI2404
aI5015
asI210614
(lp3435
I3013
aI4085
aI3860
asI619465
(lp3436
I3208
aI3455
aI7229
asI456376
(lp3437
I3172
aI1812
aI5957
asI236103
(lp3438
I4516
aI2590
aI4539
asI248095
(lp3439
I2769
aI2741
aI4448
asI588040
(lp3440
I3704
aI3625
aI6893
asI519797
(lp3441
I3733
aI2484
aI6528
asI456384
(lp3442
I4445
aI2500
aI5670
asI292546
(lp3443
I4076
aI3876
aI4405
asI5835
(lp3444
I2919
aI4215
aI2406
asI374476
(lp3445
I2048
aI3185
aI5130
asI462015
(lp3446
I3304
aI3621
aI5859
asI87758
(lp3447
I2571
aI3347
aI2838
asI276176
(lp3448
I2700
aI2290
aI4588
asI382674
(lp3449
I3039
aI2537
aI5397
asI87763
(lp3450
I2653
aI2857
aI2840
asI38612
(lp3451
I5006
aI3422
aI2268
asI431054
(lp3452
I4461
aI2977
aI5555
asI161494
(lp3453
I3717
aI2772
aI3015
asI95959
(lp3454
I3429
aI2806
aI2774
asI579288
(lp3455
I4090
aI2210
aI6139
asI280615
(lp3456
I3729
aI3525
aI5313
asI95963
(lp3457
I3701
aI2650
aI2982
asI333533
(lp3458
I4005
aI3072
aI5003
asI38624
(lp3459
I4997
aI2946
aI2044
asI308961
(lp3460
I2443
aI3222
aI4881
asI179413
(lp3461
I4171
aI4045
aI3231
asI235237
(lp3462
I4128
aI4040
aI3852
asI333542
(lp3463
I3881
aI2232
aI5005
asI259025
(lp3464
I3273
aI2444
aI4596
asI194280
(lp3465
I2232
aI2722
aI4154
asI478844
(lp3466
I4102
aI1847
aI5949
asI186091
(lp3467
I4740
aI3030
aI3569
asI46832
(lp3468
I3962
aI4263
aI2143
asI661693
(lp3469
I4232
aI2714
aI7558
asI440050
(lp3470
I3013
aI2700
aI6350
asI661236
(lp3471
I3744
aI2094
aI7779
asI579317
(lp3472
I3760
aI1846
aI6864
asI14070
(lp3473
I4000
aI4167
aI1572
asI38650
(lp3474
I5001
aI3153
aI1991
asI118399
(lp3475
I4765
aI3175
aI2940
asI341756
(lp3476
I3775
aI3330
aI5125
asI472021
(lp3477
I4448
aI3143
aI5946
asI30465
(lp3478
I4225
aI3277
aI1937
asI317188
(lp3479
I3118
aI2210
aI4849
asI308997
(lp3480
I2547
aI3113
aI4527
asI464646
(lp3481
I3177
aI3696
aI5899
asI5895
(lp3482
I2525
aI3951
aI1693
asI309001
(lp3483
I2131
aI2976
aI4500
asI135011
(lp3484
I4821
aI3430
aI2913
asI38668
(lp3485
I4862
aI3078
aI1888
asI325389
(lp3486
I3846
aI3516
aI5058
asI612110
(lp3487
I2562
aI2227
aI7337
asI456463
(lp3488
I3068
aI2398
aI5936
asI96016
(lp3489
I4483
aI2597
aI2969
asI107480
(lp3490
I4353
aI2563
aI4694
asI79635
(lp3491
I5007
aI3145
aI2240
asI71444
(lp3492
I4797
aI3011
aI2737
asI46869
(lp3493
I2851
aI3139
aI5179
asI309016
(lp3494
I2122
aI3205
aI4500
asI276249
(lp3495
I4535
aI3031
aI4900
asI145179
(lp3496
I4229
aI4075
aI3670
asI612124
(lp3497
I3086
aI1859
aI7439
asI22301
(lp3498
I4917
aI2633
aI2065
asI456478
(lp3499
I3094
aI2307
aI5950
asI106117
(lp3500
I3196
aI3880
aI3508
asI358176
(lp3501
I3778
aI3679
aI4798
asI399137
(lp3502
I4165
aI2985
aI5732
asI620322
(lp3503
I3732
aI1866
aI7273
asI620324
(lp3504
I3500
aI2256
aI7239
asI620325
(lp3505
I3990
aI1977
aI7377
asI210727
(lp3506
I3005
aI4090
aI3906
asI360219
(lp3507
I4239
aI2137
aI4920
asI612137
(lp3508
I3103
aI1813
aI7444
asI612138
(lp3509
I3156
aI1791
aI7457
asI620332
(lp3510
I4223
aI2408
aI7707
asI620333
(lp3511
I3832
aI2089
aI7529
asI317231
(lp3512
I3091
aI2288
aI4611
asI554800
(lp3513
I2660
aI2744
aI5582
asI28296
(lp3514
I4350
aI2431
aI2219
asI55091
(lp3515
I3592
aI3698
aI2237
asI153397
(lp3516
I3307
aI3440
aI3181
asI456502
(lp3517
I3763
aI1926
aI6062
asI571192
(lp3518
I4340
aI4106
aI2590
asI382777
(lp3519
I2688
aI2570
aI5180
asI484114
(lp3520
I4326
aI2955
aI5651
asI5087
(lp3521
I2539
aI4131
aI1518
asI620348
(lp3522
I3552
aI1833
aI7462
asI306826
(lp3523
I2258
aI2720
aI4810
asI251710
(lp3524
I2749
aI3511
aI4553
asI71487
(lp3525
I4758
aI2658
aI2522
asI489280
(lp3526
I2693
aI2295
aI6706
asI464705
(lp3527
I3827
aI3387
aI5876
asI589451
(lp3528
I4271
aI1892
aI6667
asI529669
(lp3529
I3616
aI3614
aI6149
asI571205
(lp3530
I3383
aI2865
aI6800
asI464711
(lp3531
I3498
aI3256
aI5913
asI96072
(lp3532
I2980
aI2490
aI2798
asI612170
(lp3533
I3557
aI2178
aI7352
asI592183
(lp3534
I4043
aI2682
aI6690
asI390989
(lp3535
I4247
aI2374
aI6151
asI489294
(lp3536
I2324
aI2597
aI6533
asI489295
(lp3537
I2576
aI2416
aI6812
asI497488
(lp3538
I2670
aI1803
aI6376
asI612105
(lp3539
I3100
aI1814
aI7370
asI612180
(lp3540
I3021
aI2149
aI7634
asI309077
(lp3541
I2586
aI3576
aI4810
asI352361
(lp3542
I4328
aI2981
aI5143
asI381924
(lp3543
I3141
aI1943
aI5132
asI5979
(lp3544
I4912
aI3476
aI2390
asI382812
(lp3545
I3279
aI2315
aI5090
asI145247
(lp3546
I3041
aI4202
aI3490
asI284513
(lp3547
I4192
aI2968
aI4182
asI685922
(lp3548
I2969
aI1791
aI7381
asI299401
(lp3549
I4273
aI2456
aI4555
asI571236
(lp3550
I3263
aI3081
aI7053
asI9190
(lp3551
I3247
aI3008
aI1935
asI514014
(lp3552
I3390
aI3387
aI4034
asI5993
(lp3553
I3161
aI4201
aI1927
asI366445
(lp3554
I4533
aI3307
aI4930
asI320719
(lp3555
I3567
aI2993
aI5102
asI571247
(lp3556
I3413
aI3384
aI7080
asI481388
(lp3557
I4304
aI2837
aI6025
asI119333
(lp3558
I4064
aI2892
aI2749
asI497523
(lp3559
I2653
aI1874
aI6342
asI104308
(lp3560
I3777
aI3731
aI4439
asI120693
(lp3561
I4615
aI3336
aI2370
asI284536
(lp3562
I4209
aI2129
aI4376
asI629782
(lp3563
I4265
aI1844
aI7446
asI464763
(lp3564
I3157
aI3746
aI5840
asI579452
(lp3565
I3629
aI2376
aI6868
asI128893
(lp3566
I4866
aI2656
aI2790
asI284542
(lp3567
I3951
aI2308
aI4298
asI46977
(lp3568
I2883
aI4209
aI2280
asI423810
(lp3569
I4297
aI1955
aI5035
asI358275
(lp3570
I3889
aI3882
aI4741
asI276356
(lp3571
I3678
aI3174
aI4610
asI563077
(lp3572
I2542
aI3322
aI6880
asI366471
(lp3573
I4526
aI3298
aI4997
asI112520
(lp3574
I3911
aI4053
aI2807
asI382858
(lp3575
I3202
aI2206
aI5298
asI79755
(lp3576
I4996
aI2772
aI2090
asI270528
(lp3577
I3277
aI2151
aI4825
asI309134
(lp3578
I2811
aI3620
aI4578
asI38663
(lp3579
I5008
aI2897
aI2126
asI440210
(lp3580
I2639
aI3741
aI5857
asI96147
(lp3581
I4410
aI2818
aI3155
asI6036
(lp3582
I3155
aI4221
aI2167
asI429015
(lp3583
I4291
aI2661
aI5271
asI63383
(lp3584
I4305
aI2983
aI2108
asI530328
(lp3585
I3749
aI3373
aI6212
asI410607
(lp3586
I3938
aI3096
aI5057
asI456605
(lp3587
I3515
aI1833
aI7464
asI464798
(lp3588
I3329
aI3580
aI5986
asI440223
(lp3589
I1974
aI3640
aI5501
asI594928
(lp3590
I4330
aI3153
aI6846
asI145315
(lp3591
I2664
aI3897
aI3551
asI448420
(lp3592
I3253
aI3277
aI7237
asI444742
(lp3593
I2803
aI1834
aI6090
asI353182
(lp3594
I3981
aI3156
aI4673
asI594929
(lp3595
I4309
aI3116
aI6741
asI200348
(lp3596
I3317
aI2209
aI3636
asI538539
(lp3597
I3897
aI2849
aI6663
asI251820
(lp3598
I4132
aI3401
aI4796
asI579504
(lp3599
I3497
aI2027
aI6864
asI513970
(lp3600
I3305
aI2706
aI6244
asI631795
(lp3601
I4212
aI2438
aI7367
asI183966
(lp3602
I4736
aI2401
aI3202
asI631855
(lp3603
I4347
aI2637
aI7233
asI513976
(lp3604
I4411
aI3867
aI2989
asI276411
(lp3605
I4150
aI2174
aI4987
asI284605
(lp3606
I4043
aI2069
aI4436
asI260030
(lp3607
I2955
aI2884
aI4563
asI594933
(lp3608
I4302
aI2854
aI6799
asI672884
(lp3609
I4044
aI2567
aI7439
asI251842
(lp3610
I3375
aI2528
aI5062
asI284613
(lp3611
I3984
aI2128
aI4413
asI79814
(lp3612
I4915
aI2802
aI2073
asI120775
(lp3613
I4020
aI3003
aI3045
asI440264
(lp3614
I2238
aI3726
aI5614
asI536982
(lp3615
I4193
aI2303
aI6237
asI88013
(lp3616
I2980
aI2727
aI2852
asI513998
(lp3617
I3440
aI3075
aI6679
asI276436
(lp3618
I3814
aI2572
aI4789
asI522197
(lp3619
I3841
aI1930
aI6489
asI618601
(lp3620
I3237
aI3698
aI7436
asI595928
(lp3621
I4333
aI3181
aI6718
asI522201
(lp3622
I3877
aI1909
aI6566
asI22490
(lp3623
I3327
aI1809
aI5552
asI448475
(lp3624
I2867
aI3268
aI5722
asI260060
(lp3625
I3119
aI3308
aI4449
asI530397
(lp3626
I3751
aI3524
aI6194
asI137182
(lp3627
I2429
aI2748
aI3052
asI488443
(lp3628
I1983
aI2435
aI6695
asI497642
(lp3629
I2865
aI1753
aI6305
asI601767
(lp3630
I1945
aI3494
aI7089
asI571372
(lp3631
I2966
aI2517
aI7256
asI145746
(lp3632
I3258
aI3445
aI5070
asI6127
(lp3633
I2967
aI3873
aI2124
asI167592
(lp3634
I3759
aI4188
aI3445
asI600403
(lp3635
I4084
aI3031
aI7561
asI96244
(lp3636
I3852
aI2737
aI2988
asI74750
(lp3637
I4591
aI3758
aI2109
asI129014
(lp3638
I4958
aI2412
aI2865
asI670036
(lp3639
I3760
aI3534
aI7635
asI418815
(lp3640
I3811
aI3433
aI5126
asI463389
(lp3641
I3477
aI3564
aI6037
asI391165
(lp3642
I2779
aI3449
aI5642
asI538623
(lp3643
I4381
aI2911
aI6370
asI463872
(lp3644
I3111
aI3525
aI5973
asI79874
(lp3645
I4519
aI2681
aI2071
asI538628
(lp3646
I4008
aI2809
aI6275
asI342358
(lp3647
I3774
aI3739
aI4689
asI6150
(lp3648
I3044
aI4229
aI1862
asI538631
(lp3649
I4329
aI2829
aI6657
asI489480
(lp3650
I2102
aI2603
aI7037
asI538633
(lp3651
I4371
aI2948
aI6632
asI235530
(lp3652
I4052
aI3547
aI4371
asI604172
(lp3653
I2728
aI2094
aI7270
asI14349
(lp3654
I2406
aI3285
aI5814
asI213248
(lp3655
I3936
aI2122
aI3642
asI358416
(lp3656
I3973
aI3837
aI4824
asI317458
(lp3657
I4481
aI2336
aI5012
asI476163
(lp3658
I3804
aI3376
aI5772
asI88084
(lp3659
I2427
aI3051
aI3379
asI538645
(lp3660
I4250
aI3017
aI7204
asI538646
(lp3661
I4335
aI3186
aI6395
asI37892
(lp3662
I4810
aI2292
aI1898
asI612378
(lp3663
I3319
aI1816
aI7108
asI6171
(lp3664
I4760
aI2855
aI2360
asI251934
(lp3665
I3617
aI2717
aI4411
asI17957
(lp3666
I3715
aI2282
aI1774
asI237232
(lp3667
I4493
aI2124
aI3817
asI489506
(lp3668
I2046
aI2852
aI6847
asI448547
(lp3669
I4127
aI2933
aI6308
asI350244
(lp3670
I4225
aI2772
aI5359
asI489509
(lp3671
I1914
aI2900
aI6107
asI88103
(lp3672
I2914
aI3158
aI3054
asI432168
(lp3673
I4279
aI2947
aI5178
asI432169
(lp3674
I4493
aI3299
aI5206
asI566279
(lp3675
I3221
aI1833
aI6867
asI538668
(lp3676
I4327
aI3110
aI6479
asI526685
(lp3677
I4278
aI2832
aI6455
asI589491
(lp3678
I4326
aI1998
aI7001
asI88117
(lp3679
I2948
aI2955
aI2955
asI365462
(lp3680
I4414
aI3203
aI4774
asI300041
(lp3681
I4531
aI3138
aI4700
asI137273
(lp3682
I2453
aI3220
aI3030
asI464954
(lp3683
I3471
aI3633
aI6222
asI538683
(lp3684
I4372
aI3043
aI6796
asI88125
(lp3685
I3015
aI3153
aI2859
asI14398
(lp3686
I2808
aI3225
aI4701
asI22591
(lp3687
I2391
aI3682
aI4751
asI424073
(lp3688
I4455
aI2248
aI5514
asI563265
(lp3689
I2537
aI3587
aI6836
asI22594
(lp3690
I4087
aI3596
aI2346
asI508939
(lp3691
I3417
aI1937
aI6093
asI256837
(lp3692
I3319
aI1999
aI4408
asI424011
(lp3693
I4125
aI1819
aI5531
asI473168
(lp3694
I4099
aI2744
aI5842
asI69304
(lp3695
I4259
aI2480
aI2265
asI440404
(lp3696
I1991
aI3691
aI5634
asI456790
(lp3697
I3432
aI1830
aI5830
asI491193
(lp3698
I2193
aI3161
aI6434
asI342372
(lp3699
I3189
aI3676
aI6826
asI538715
(lp3700
I4343
aI2501
aI7166
asI424028
(lp3701
I4377
aI2306
aI5473
asI587870
(lp3702
I3779
aI3679
aI6786
asI538719
(lp3703
I4245
aI3083
aI6895
asI14432
(lp3704
I3676
aI4112
aI1634
asI14433
(lp3705
I3742
aI3670
aI4982
asI391266
(lp3706
I2952
aI3236
aI5660
asI424270
(lp3707
I4323
aI2019
aI5206
asI424036
(lp3708
I4465
aI2176
aI5507
asI530536
(lp3709
I3823
aI3648
aI6207
asI174512
(lp3710
I4244
aI3123
aI3109
asI96363
(lp3711
I4707
aI2992
aI3413
asI252012
(lp3712
I4026
aI2947
aI5102
asI538734
(lp3713
I4143
aI2963
aI6473
asI339645
(lp3714
I4274
aI3289
aI4610
asI456816
(lp3715
I4366
aI2678
aI6323
asI522353
(lp3716
I3672
aI2007
aI6695
asI151057
(lp3717
I3418
aI3185
aI4062
asI118462
(lp3718
I4513
aI2911
aI2847
asI268406
(lp3719
I2930
aI3976
aI4355
asI14456
(lp3720
I3781
aI4210
aI2009
asI538746
(lp3721
I4178
aI3180
aI6818
asI483007
(lp3722
I4461
aI2876
aI5794
asI601694
(lp3723
I1895
aI3568
aI7031
asI505983
(lp3724
I2613
aI3675
aI6219
asI6276
(lp3725
I3129
aI4226
aI1798
asI497798
(lp3726
I3411
aI1800
aI6711
asI96391
(lp3727
I3087
aI2738
aI2877
asI465033
(lp3728
I3217
aI3617
aI5968
asI37853
(lp3729
I4938
aI2787
aI1951
asI33815
(lp3730
I4509
aI4161
aI1580
asI424076
(lp3731
I4418
aI2266
aI5477
asI674157
(lp3732
I4101
aI3179
aI7702
asI14481
(lp3733
I3434
aI4232
aI1769
asI6290
(lp3734
I2677
aI3912
aI1877
asI154877
(lp3735
I3347
aI3243
aI3410
asI563348
(lp3736
I2451
aI3535
aI6787
asI293013
(lp3737
I4019
aI3893
aI4311
asI137366
(lp3738
I2377
aI2785
aI3098
asI309400
(lp3739
I2203
aI3380
aI4588
asI383130
(lp3740
I2591
aI1944
aI5645
asI88220
(lp3741
I4150
aI3459
aI2866
asI8935581
(lp3742
I2839
aI3990
aI1641
asI137374
(lp3743
I2434
aI3284
aI3092
asI88225
(lp3744
I4686
aI3711
aI2900
asI653474
(lp3745
I2744
aI2090
aI7617
asI137381
(lp3746
I3056
aI2958
aI3084
asI538790
(lp3747
I4309
aI2589
aI6604
asI535565
(lp3748
I4357
aI2588
aI6616
asI456874
(lp3749
I4428
aI2315
aI5987
asI538795
(lp3750
I4343
aI3068
aI6920
asI74020
(lp3751
I4451
aI3560
aI2356
asI357712
(lp3752
I4085
aI3846
aI4683
asI612527
(lp3753
I4288
aI2738
aI7666
asI358576
(lp3754
I3921
aI3477
aI4795
asI118472
(lp3755
I4861
aI2505
aI3055
asI489655
(lp3756
I2415
aI3038
aI5918
asI63673
(lp3757
I4876
aI2523
aI2232
asI145594
(lp3758
I3022
aI2921
aI3726
asI547003
(lp3759
I2158
aI3095
aI7261
asI200394
(lp3760
I2964
aI2167
aI3684
asI317630
(lp3761
I3395
aI1956
aI5291
asI235711
(lp3762
I4076
aI4107
aI3950
asI325824
(lp3763
I3277
aI3504
aI4722
asI407745
(lp3764
I3262
aI3772
aI5232
asI547012
(lp3765
I3587
aI3865
aI2111
asI485750
(lp3766
I4073
aI3279
aI5786
asI137416
(lp3767
I2948
aI2751
aI4406
asI481481
(lp3768
I4265
aI2646
aI5976
asI465099
(lp3769
I3359
aI3694
aI5972
asI300066
(lp3770
I4168
aI3085
aI4782
asI334030
(lp3771
I3495
aI2536
aI4905
asI88273
(lp3772
I4878
aI3238
aI2961
asI440530
(lp3773
I2598
aI3662
aI5795
asI22740
(lp3774
I3930
aI3389
aI1754
asI47317
(lp3775
I2724
aI3927
aI2547
asI962957
(lp3776
I4461
aI2401
aI1666
asI366435
(lp3777
I4497
aI3122
aI4753
asI96473
(lp3778
I4860
aI3002
aI3073
asI465114
(lp3779
I3779
aI3262
aI6551
asI104672
(lp3780
I4018
aI4159
aI2731
asI589520
(lp3781
I4103
aI2209
aI6995
asI665979
(lp3782
I4090
aI2191
aI7862
asI14564
(lp3783
I2775
aI3949
aI4255
asI129255
(lp3784
I4624
aI2273
aI3039
asI612584
(lp3785
I2980
aI2104
aI7091
asI440554
(lp3786
I2045
aI3686
aI5644
asI96493
(lp3787
I4687
aI2959
aI3158
asI424175
(lp3788
I4509
aI1910
aI5039
asI563441
(lp3789
I3306
aI3323
aI7187
asI594954
(lp3790
I4339
aI3188
aI6883
asI366836
(lp3791
I4472
aI3093
aI4547
asI612598
(lp3792
I3339
aI1890
aI7117
asI287785
(lp3793
I4201
aI3602
aI4493
asI129272
(lp3794
I4859
aI2585
aI2941
asI355962
(lp3795
I3985
aI3795
aI5117
asI596219
(lp3796
I4383
aI2951
aI6804
asI506113
(lp3797
I2630
aI3497
aI6617
asI30978
(lp3798
I4812
aI2845
aI2010
asI472107
(lp3799
I4440
aI3157
aI5887
asI416005
(lp3800
I4339
aI2682
aI5195
asI361650
(lp3801
I4491
aI2451
aI4739
asI399624
(lp3802
I3972
aI2261
aI5302
asI88332
(lp3803
I4763
aI3711
aI2833
asI129293
(lp3804
I4710
aI2313
aI3047
asI156245
(lp3805
I3997
aI4159
aI3150
asI506127
(lp3806
I2706
aI3580
aI6126
asI129297
(lp3807
I4530
aI2619
aI2995
asI366573
(lp3808
I4297
aI3233
aI5039
asI72384
(lp3809
I4468
aI3107
aI2253
asI162068
(lp3810
I4071
aI3621
aI3366
asI440598
(lp3811
I1987
aI3706
aI5655
asI432407
(lp3812
I4518
aI3253
aI5284
asI129304
(lp3813
I4741
aI2399
aI2936
asI645402
(lp3814
I3832
aI2875
aI5168
asI194843
(lp3815
I2537
aI3252
aI3553
asI522525
(lp3816
I3807
aI1827
aI6497
asI223621
(lp3817
I4077
aI2687
aI3596
asI582704
(lp3818
I5004
aI3261
aI2230
asI432418
(lp3819
I4236
aI3298
aI5244
asI596261
(lp3820
I4216
aI3178
aI6725
asI596262
(lp3821
I4046
aI3152
aI6805
asI489767
(lp3822
I2268
aI3387
aI5803
asI563499
(lp3823
I2832
aI3325
aI6888
asI88364
(lp3824
I4152
aI3439
aI2753
asI448816
(lp3825
I2922
aI2843
aI6857
asI612657
(lp3826
I2981
aI1852
aI7096
asI22834
(lp3827
I4229
aI3656
aI1602
asI489779
(lp3828
I2056
aI2953
aI6083
asI252214
(lp3829
I2769
aI3321
aI5298
asI582708
(lp3830
I3492
aI3134
aI6971
asI293179
(lp3831
I4434
aI3077
aI4450
asI268604
(lp3832
I3071
aI3925
aI4326
asI391487
(lp3833
I2704
aI3028
aI6338
asI297548
(lp3834
I4474
aI2168
aI4987
asI579905
(lp3835
I4358
aI2474
aI6611
asI129347
(lp3836
I4932
aI2627
aI2870
asI383300
(lp3837
I4456
aI3041
aI5744
asI366917
(lp3838
I4569
aI3169
aI4605
asI589537
(lp3839
I4378
aI2263
aI7142
asI514376
(lp3840
I3800
aI3225
aI6136
asI366921
(lp3841
I4587
aI3119
aI4609
asI299729
(lp3842
I4485
aI2745
aI4305
asI481614
(lp3843
I4203
aI2820
aI5772
asI342351
(lp3844
I3210
aI3843
aI5255
asI6480
(lp3845
I4374
aI4199
aI2014
asI350545
(lp3846
I3974
aI3067
aI4905
asI342354
(lp3847
I2975
aI3770
aI5797
asI137555
(lp3848
I3127
aI3226
aI3082
asI220624
(lp3849
I3501
aI4103
aI3623
asI342357
(lp3850
I3372
aI3818
aI5304
asI14678
(lp3851
I4133
aI4214
aI1887
asI558137
(lp3852
I2937
aI2936
aI6697
asI342360
(lp3853
I3687
aI3864
aI4609
asI547163
(lp3854
I2705
aI3250
aI7430
asI457054
(lp3855
I3464
aI1902
aI6002
asI342368
(lp3856
I3658
aI3788
aI4676
asI440673
(lp3857
I1977
aI3316
aI5620
asI629090
(lp3858
I3874
aI3578
aI7271
asI138517
(lp3859
I3423
aI2742
aI3225
asI424293
(lp3860
I4316
aI1884
aI5238
asI417028
(lp3861
I4450
aI2279
aI5413
asI342377
(lp3862
I3632
aI3650
aI5083
asI563562
(lp3863
I2441
aI3652
aI6911
asI84370
(lp3864
I4879
aI3757
aI2398
asI112603
(lp3865
I3792
aI3632
aI2792
asI350576
(lp3866
I3841
aI2866
aI4952
asI498033
(lp3867
I2898
aI1750
aI6150
asI514418
(lp3868
I3048
aI3171
aI6180
asI137587
(lp3869
I4049
aI2304
aI3257
asI334197
(lp3870
I3030
aI3261
aI4733
asI465270
(lp3871
I3449
aI3559
aI5976
asI76803
(lp3872
I4504
aI3927
aI2494
asI506235
(lp3873
I2654
aI3572
aI6363
asI521107
(lp3874
I3738
aI1811
aI6368
asI334207
(lp3875
I3216
aI2525
aI4922
asI88448
(lp3876
I3020
aI3029
aI2929
asI375169
(lp3877
I2691
aI3074
aI5734
asI335595
(lp3878
I4320
aI3066
aI5139
asI145796
(lp3879
I3370
aI4077
aI3353
asI237811
(lp3880
I4397
aI2219
aI3822
asI439875
(lp3881
I2814
aI3054
aI6135
asI88459
(lp3882
I4286
aI3904
aI3086
asI119874
(lp3883
I4709
aI2924
aI3143
asI383374
(lp3884
I2720
aI2394
aI5376
asI3821
(lp3885
I3064
aI4125
aI1753
asI547216
(lp3886
I2028
aI3172
aI7091
asI457106
(lp3887
I3486
aI2022
aI6048
asI3822
(lp3888
I3043
aI3968
aI1982
asI88471
(lp3889
I3426
aI2282
aI2883
asI145816
(lp3890
I2356
aI4044
aI3512
asI6554
(lp3891
I2756
aI4199
aI1926
asI96669
(lp3892
I3018
aI2295
aI2997
asI465310
(lp3893
I3755
aI3469
aI6061
asI357445
(lp3894
I3713
aI3753
aI4614
asI535894
(lp3895
I4149
aI2578
aI6463
asI342433
(lp3896
I4276
aI3007
aI5192
asI443585
(lp3897
I3317
aI1928
aI5722
asI79193
(lp3898
I4990
aI2383
aI2258
asI653736
(lp3899
I2973
aI3662
aI7558
asI580009
(lp3900
I4120
aI2454
aI6249
asI88490
(lp3901
I4006
aI2504
aI3066
asI399787
(lp3902
I4267
aI3294
aI5207
asI547246
(lp3903
I2183
aI3230
aI7034
asI309683
(lp3904
I4019
aI3606
aI5053
asI416158
(lp3905
I3664
aI3046
aI5282
asI580022
(lp3906
I3802
aI2394
aI6998
asI375224
(lp3907
I2270
aI2905
aI5184
asI440761
(lp3908
I2424
aI3769
aI5746
asI137658
(lp3909
I3504
aI2637
aI3507
asI637371
(lp3910
I3665
aI3294
aI6646
asI397045
(lp3911
I3934
aI2867
aI5238
asI350656
(lp3912
I3952
aI2656
aI4792
asI6593
(lp3913
I3374
aI4066
aI2494
asI595019
(lp3914
I4274
aI3211
aI5713
asI383137
(lp3915
I2956
aI1963
aI5404
asI471518
(lp3916
I4362
aI2733
aI6840
asI522695
(lp3917
I3607
aI2629
aI6038
asI431201
(lp3918
I4423
aI3348
aI5499
asI498122
(lp3919
I2806
aI1753
aI6334
asI285131
(lp3920
I3856
aI2505
aI4208
asI342476
(lp3921
I3732
aI3844
aI5153
asI88525
(lp3922
I4861
aI3031
aI3115
asI72142
(lp3923
I5001
aI3671
aI1988
asI309711
(lp3924
I3584
aI3184
aI4756
asI145872
(lp3925
I2951
aI2346
aI3032
asI235985
(lp3926
I4674
aI2390
aI3981
asI289915
(lp3927
I4559
aI2796
aI4706
asI498132
(lp3928
I2689
aI1746
aI6319
asI235989
(lp3929
I4561
aI2329
aI4799
asI621014
(lp3930
I3830
aI2164
aI7083
asI539096
(lp3931
I4128
aI3168
aI6101
asI96729
(lp3932
I4658
aI2928
aI3005
asI212445
(lp3933
I4025
aI2226
aI3722
asI88540
(lp3934
I2558
aI3374
aI2931
asI235997
(lp3935
I4446
aI2365
aI3978
asI522719
(lp3936
I3746
aI2744
aI5984
asI309728
(lp3937
I3101
aI2664
aI4839
asI596449
(lp3938
I4101
aI2705
aI6854
asI572791
(lp3939
I3450
aI2872
aI6918
asI547300
(lp3940
I2941
aI3173
aI7470
asI211627
(lp3941
I3478
aI2132
aI3660
asI586703
(lp3942
I3739
aI3659
aI6587
asI621031
(lp3943
I3584
aI1814
aI7085
asI678381
(lp3944
I4083
aI2184
aI7820
asI166891
(lp3945
I3323
aI3564
aI3599
asI465395
(lp3946
I3403
aI3732
aI5991
asI575913
(lp3947
I3003
aI3665
aI6728
asI391672
(lp3948
I2813
aI3853
aI5018
asI137721
(lp3949
I4697
aI2927
aI3326
asI498170
(lp3950
I2452
aI1746
aI6406
asI522748
(lp3951
I3593
aI2476
aI6145
asI424362
(lp3952
I4509
aI2437
aI5061
asI177237
(lp3953
I4227
aI3510
aI3420
asI192806
(lp3954
I2862
aI3477
aI2114
asI77653
(lp3955
I4430
aI4230
aI2169
asI317958
(lp3956
I3388
aI3756
aI4948
asI277000
(lp3957
I4380
aI2139
aI4924
asI88586
(lp3958
I3203
aI3159
aI2944
asI99415
(lp3959
I3958
aI3358
aI2950
asI465425
(lp3960
I3685
aI3226
aI6247
asI383506
(lp3961
I3637
aI1886
aI5769
asI137646
(lp3962
I3176
aI3333
aI3126
asI406617
(lp3963
I4029
aI2955
aI6107
asI391938
(lp3964
I2934
aI3588
aI5029
asI6683
(lp3965
I3076
aI4246
aI1965
asI14879
(lp3966
I4068
aI4248
aI1729
asI137760
(lp3967
I2797
aI2945
aI3280
asI211489
(lp3968
I3671
aI2249
aI4308
asI14882
(lp3969
I2510
aI3494
aI2728
asI309795
(lp3970
I2244
aI3556
aI4564
asI309796
(lp3971
I2286
aI3328
aI4649
asI227879
(lp3972
I3892
aI3142
aI3834
asI571944
(lp3973
I3427
aI3289
aI6671
asI614180
(lp3974
I3476
aI1974
aI7546
asI539179
(lp3975
I4247
aI3130
aI6183
asI11407
(lp3976
I4012
aI3844
aI3804
asI162349
(lp3977
I4211
aI2722
aI4416
asI160861
(lp3978
I3795
aI2260
aI3402
asI318003
(lp3979
I4045
aI3543
aI4968
asI268855
(lp3980
I3177
aI3897
aI4354
asI47673
(lp3981
I3068
aI4244
aI2358
asI408122
(lp3982
I3947
aI3014
aI5326
asI375357
(lp3983
I2948
aI3354
aI5103
asI82097
(lp3984
I4982
aI3217
aI2449
asI350783
(lp3985
I4493
aI2607
aI4886
asI309824
(lp3986
I2736
aI3026
aI4689
asI360228
(lp3987
I4285
aI2062
aI5068
asI14914
(lp3988
I3356
aI3718
aI3205
asI346112
(lp3989
I4083
aI2360
aI4549
asI349281
(lp3990
I3871
aI2550
aI5302
asI79508
(lp3991
I4739
aI2308
aI2263
asI252494
(lp3992
I3480
aI3399
aI4710
asI318032
(lp3993
I2863
aI2127
aI4689
asI547409
(lp3994
I2539
aI3065
aI6923
asI344785
(lp3995
I3271
aI3887
aI4693
asI444587
(lp3996
I2979
aI1884
aI5975
asI309846
(lp3997
I3868
aI3519
aI4826
asI278287
(lp3998
I3954
aI3875
aI4215
asI571998
(lp3999
I3315
aI3098
aI6696
asI498271
(lp4000
I2910
aI2086
aI6969
asI375393
(lp4001
I2158
aI3495
aI5168
asI531042
(lp4002
I3809
aI3598
aI6272
asI146709
(lp4003
I3553
aI2456
aI3401
asI167697
(lp4004
I3580
aI3913
aI3371
asI580202
(lp4005
I3742
aI2321
aI6624
asI326253
(lp4006
I3225
aI3903
aI4551
asI31342
(lp4007
I4861
aI3306
aI2802
asI440945
(lp4008
I2550
aI3714
aI5729
asI154226
(lp4009
I3081
aI3397
aI3370
asI278291
(lp4010
I3810
aI3045
aI4198
asI318069
(lp4011
I2941
aI1978
aI4653
asI391798
(lp4012
I2761
aI3858
aI5046
asI35960
(lp4013
I4950
aI3104
aI1740
asI572027
(lp4014
I2917
aI3192
aI6550
asI195196
(lp4015
I2498
aI3360
aI3785
asI8928943
(lp4016
I3676
aI2968
aI3428
asI64128
(lp4017
I3972
aI4112
aI2583
asI64129
(lp4018
I3993
aI3470
aI2420
asI252546
(lp4019
I4478
aI3117
aI4985
asI440963
(lp4020
I2607
aI3409
aI5698
asI64132
(lp4021
I4481
aI4239
aI2236
asI440965
(lp4022
I2123
aI3632
aI5784
asI634355
(lp4023
I4368
aI3114
aI7403
asI406672
(lp4024
I3623
aI3640
aI5452
asI360443
(lp4025
I4347
aI2224
aI5361
asI23180
(lp4026
I3573
aI3386
aI3495
asI563853
(lp4027
I3053
aI3506
aI6842
asI522898
(lp4028
I3735
aI2515
aI6474
asI406639
(lp4029
I3482
aI3593
aI5547
asI244381
(lp4030
I4453
aI3596
aI3825
asI268958
(lp4031
I3317
aI3594
aI4369
asI64159
(lp4032
I3848
aI3690
aI2581
asI6819
(lp4033
I2787
aI3714
aI2193
asI252580
(lp4034
I2514
aI3647
aI4622
asI522917
(lp4035
I3659
aI2574
aI6591
asI440999
(lp4036
I2529
aI3692
aI5638
asI381577
(lp4037
I4017
aI2056
aI5282
asI309931
(lp4038
I2846
aI3014
aI5263
asI211628
(lp4039
I3728
aI2140
aI3519
asI537714
(lp4040
I4219
aI2353
aI6367
asI277166
(lp4041
I3275
aI3396
aI4315
asI23215
(lp4042
I3668
aI3549
aI1992
asI539313
(lp4043
I4181
aI3176
aI6196
asI170675
(lp4044
I4211
aI2728
aI3491
asI518056
(lp4045
I3734
aI3409
aI6359
asI441018
(lp4046
I2398
aI3718
aI5829
asI604859
(lp4047
I2409
aI2089
aI7233
asI465354
(lp4048
I3375
aI3703
aI5912
asI631925
(lp4049
I4063
aI2500
aI7487
asI498368
(lp4050
I2635
aI2196
aI6417
asI268995
(lp4051
I2496
aI3465
aI6233
asI256460
(lp4052
I4597
aI2657
aI4828
asI326346
(lp4053
I2888
aI3434
aI4828
asI383693
(lp4054
I3284
aI2505
aI6026
asI309966
(lp4055
I2192
aI3214
aI4682
asI490192
(lp4056
I2003
aI2918
aI6182
asI391890
(lp4057
I2760
aI3731
aI5056
asI129747
(lp4058
I4687
aI2247
aI2619
asI170708
(lp4059
I4275
aI2542
aI3692
asI519802
(lp4060
I4119
aI1826
aI6387
asI48932
(lp4061
I3128
aI2274
aI2116
asI293594
(lp4062
I4136
aI3818
aI4117
asI235983
(lp4063
I3979
aI2708
aI4626
asI581413
(lp4064
I4130
aI2796
aI7014
asI444880
(lp4065
I3173
aI1953
aI6179
asI441060
(lp4066
I1982
aI3722
aI5799
asI383717
(lp4067
I4350
aI2618
aI5729
asI252648
(lp4068
I2984
aI3836
aI4236
asI480380
(lp4069
I4334
aI1794
aI5827
asI31597
(lp4070
I3639
aI2936
aI5505
asI333024
(lp4071
I3676
aI1928
aI4733
asI88816
(lp4072
I3783
aI2409
aI3108
asI432881
(lp4073
I4172
aI3078
aI5349
asI506611
(lp4074
I2552
aI3632
aI6193
asI137973
(lp4075
I3157
aI2234
aI4466
asI334661
(lp4076
I3865
aI2846
aI5025
asI391927
(lp4077
I3152
aI3571
aI5106
asI48684
(lp4078
I3287
aI2388
aI2449
asI137981
(lp4079
I2679
aI3439
aI3149
asI170751
(lp4080
I4060
aI2256
aI3224
asI391936
(lp4081
I3321
aI3674
aI5060
asI170754
(lp4082
I4692
aI3379
aI4499
asI506627
(lp4083
I2516
aI3660
aI6251
asI97028
(lp4084
I2945
aI2378
aI3095
asI277255
(lp4085
I3711
aI3391
aI4697
asI85884
(lp4086
I4841
aI3758
aI2403
asI391948
(lp4087
I3033
aI3730
aI5086
asI237824
(lp4088
I4673
aI2636
aI3812
asI88847
(lp4089
I3992
aI2985
aI2777
asI170768
(lp4090
I4650
aI3048
aI3489
asI182744
(lp4091
I4816
aI2341
aI3249
asI342803
(lp4092
I3746
aI3896
aI4699
asI547604
(lp4093
I2216
aI3025
aI6913
asI40854
(lp4094
I5005
aI3424
aI1686
asI235993
(lp4095
I4750
aI2470
aI3958
asI490266
(lp4096
I2200
aI3129
aI6627
asI360239
(lp4097
I4437
aI2471
aI5563
asI441116
(lp4098
I3954
aI3095
aI6144
asI170781
(lp4099
I4559
aI2529
aI3237
asI465694
(lp4100
I3930
aI1819
aI5506
asI244512
(lp4101
I4566
aI3559
aI3845
asI359204
(lp4102
I4055
aI3919
aI4879
asI88872
(lp4103
I3724
aI4193
aI2757
asI424412
(lp4104
I4491
aI1929
aI5057
asI310059
(lp4105
I2189
aI3510
aI4672
asI64300
(lp4106
I4338
aI4224
aI2635
asI170797
(lp4107
I4400
aI2269
aI3335
asI105262
(lp4108
I3366
aI4153
aI2745
asI277295
(lp4109
I3208
aI3431
aI4375
asI539441
(lp4110
I4000
aI3017
aI6270
asI465714
(lp4111
I3940
aI1909
aI5764
asI170804
(lp4112
I4331
aI2281
aI3659
asI375606
(lp4113
I2412
aI2741
aI5635
asI37603
(lp4114
I4585
aI2489
aI1861
asI170809
(lp4115
I4278
aI2734
aI3676
asI375610
(lp4116
I2251
aI3367
aI5269
asI441148
(lp4117
I2102
aI3767
aI5901
asI449341
(lp4118
I3053
aI3288
aI6067
asI360245
(lp4119
I4385
aI1931
aI4948
asI604992
(lp4120
I3371
aI1904
aI7292
asI236000
(lp4121
I4236
aI2748
aI3553
asI88901
(lp4122
I2956
aI2878
aI3249
asI334663
(lp4123
I3542
aI2511
aI5129
asI441160
(lp4124
I2296
aI3581
aI5907
asI373900
(lp4125
I4460
aI3212
aI5691
asI334666
(lp4126
I4121
aI2768
aI5421
asI170827
(lp4127
I4353
aI2321
aI3628
asI182754
(lp4128
I4748
aI2236
aI3740
asI8928079
(lp4129
I4861
aI3763
aI1687
asI475147
(lp4130
I3712
aI3628
aI5916
asI334674
(lp4131
I4395
aI3092
aI5220
asI547667
(lp4132
I2286
aI3290
aI6917
asI334679
(lp4133
I4045
aI2808
aI5301
asI72497
(lp4134
I4506
aI3371
aI2385
asI498148
(lp4135
I2880
aI1745
aI6366
asI473947
(lp4136
I3786
aI3550
aI6532
asI125713
(lp4137
I3990
aI4029
aI2597
asI360250
(lp4138
I4329
aI2046
aI4935
asI31584
(lp4139
I4435
aI3477
aI1577
asI225006
(lp4140
I4429
aI2597
aI3850
asI613219
(lp4141
I3433
aI1797
aI7288
asI8928100
(lp4142
I2876
aI3868
aI1997
asI8928101
(lp4143
I2843
aI3886
aI1942
asI392038
(lp4144
I3066
aI3685
aI5059
asI88935
(lp4145
I4805
aI3569
aI3372
asI360252
(lp4146
I4578
aI2542
aI4946
asI31594
(lp4147
I4841
aI3492
aI2926
asI547691
(lp4148
I1983
aI3279
aI7146
asI7021
(lp4149
I3843
aI2567
aI1830
asI375664
(lp4150
I3382
aI3809
aI5226
asI31602
(lp4151
I4923
aI2527
aI1886
asI140435
(lp4152
I2567
aI3806
aI3117
asI572276
(lp4153
I3244
aI2826
aI6617
asI138101
(lp4154
I2650
aI3380
aI3222
asI23416
(lp4155
I4647
aI3203
aI4492
asI506745
(lp4156
I3337
aI3325
aI7038
asI471875
(lp4157
I3946
aI2887
aI5990
asI473980
(lp4158
I3574
aI2818
aI5895
asI146301
(lp4159
I3071
aI2535
aI3178
asI538625
(lp4160
I4044
aI3060
aI6752
asI383878
(lp4161
I3079
aI2295
aI5491
asI188320
(lp4162
I4657
aI3726
aI3273
asI539528
(lp4163
I4081
aI3166
aI6280
asI31625
(lp4164
I4367
aI3709
aI3139
asI337048
(lp4165
I3570
aI2511
aI4812
asI547731
(lp4166
I1969
aI3587
aI6936
asI15254
(lp4167
I3192
aI4254
aI1859
asI211867
(lp4168
I4239
aI2890
aI3700
asI678812
(lp4169
I3822
aI2740
aI5627
asI678813
(lp4170
I2807
aI2720
aI3519
asI80798
(lp4171
I4683
aI2309
aI2312
asI15263
(lp4172
I3315
aI4163
aI1779
asI326560
(lp4173
I3692
aI3483
aI4956
asI436720
(lp4174
I1991
aI2358
aI5964
asI185151
(lp4175
I4524
aI2793
aI3398
asI359338
(lp4176
I3671
aI3586
aI4876
asI7084
(lp4177
I3378
aI2837
aI1833
asI613293
(lp4178
I2995
aI1793
aI7264
asI7086
(lp4179
I4631
aI2968
aI3466
asI496797
(lp4180
I4383
aI3110
aI6464
asI416688
(lp4181
I4704
aI3202
aI3923
asI584179
(lp4182
I3831
aI3146
aI6733
asI375733
(lp4183
I3874
aI3533
aI5300
asI506806
(lp4184
I2348
aI3574
aI6315
asI179127
(lp4185
I3894
aI3544
aI3411
asI69612
(lp4186
I4472
aI2374
aI2211
asI162751
(lp4187
I3412
aI3027
aI4365
asI269251
(lp4188
I2908
aI3921
aI4485
asI547780
(lp4189
I2689
aI2679
aI7510
asI485878
(lp4190
I4441
aI3073
aI5806
asI270482
(lp4191
I3630
aI2410
aI4422
asI360620
(lp4192
I4552
aI2173
aI4783
asI7114
(lp4193
I4247
aI2723
aI5639
asI596471
(lp4194
I4280
aI2858
aI6810
asI310224
(lp4195
I2467
aI3279
aI4724
asI361535
(lp4196
I4494
aI1932
aI4717
asI31699
(lp4197
I4805
aI3728
aI1861
asI195542
(lp4198
I3289
aI3436
aI3567
asI571897
(lp4199
I3294
aI3278
aI6920
asI367577
(lp4200
I4236
aI3406
aI4634
asI7131
(lp4201
I3838
aI2538
aI1892
asI289795
(lp4202
I4045
aI2902
aI4488
asI375290
(lp4203
I2251
aI3001
aI5353
asI302174
(lp4204
I4688
aI3292
aI4337
asI441312
(lp4205
I2275
aI3767
aI5820
asI367585
(lp4206
I4191
aI3400
aI4646
asI252899
(lp4207
I3238
aI3555
aI4443
asI31716
(lp4208
I4500
aI3596
aI2608
asI293863
(lp4209
I4067
aI3760
aI4270
asI293864
(lp4210
I4079
aI3663
aI4286
asI600572
(lp4211
I2642
aI3291
aI7398
asI293866
(lp4212
I3963
aI3569
aI4587
asI310251
(lp4213
I2504
aI3258
aI4785
asI293868
(lp4214
I4203
aI3968
aI4311
asI297433
(lp4215
I4650
aI2423
aI4487
asI580590
(lp4216
I3633
aI2251
aI6890
asI182756
(lp4217
I4714
aI2642
aI3454
asI15349
(lp4218
I3837
aI4062
aI1893
asI31735
(lp4219
I4894
aI3686
aI2467
asI490488
(lp4220
I2074
aI2904
aI6271
asI547833
(lp4221
I3276
aI3067
aI7089
asI392186
(lp4222
I2784
aI3798
aI5135
asI31740
(lp4223
I4825
aI3756
aI1884
asI8911869
(lp4224
I2115
aI3706
aI5136
asI126264
(lp4225
I4139
aI4149
aI2922
asI441344
(lp4226
I2096
aI3751
aI5852
asI687105
(lp4227
I3427
aI2971
aI2730
asI293890
(lp4228
I4097
aI3876
aI4259
asI97284
(lp4229
I4632
aI2693
aI2999
asI31749
(lp4230
I4824
aI2653
aI2349
asI293894
(lp4231
I4148
aI3710
aI4316
asI384007
(lp4232
I3861
aI3661
aI4459
asI318473
(lp4233
I2910
aI2117
aI4765
asI293899
(lp4234
I4133
aI3911
aI4277
asI506892
(lp4235
I2599
aI3603
aI6261
asI547854
(lp4236
I2427
aI3543
aI6853
asI629775
(lp4237
I4198
aI1804
aI7394
asI629776
(lp4238
I4257
aI2051
aI7752
asI560984
(lp4239
I3103
aI3580
aI6951
asI343060
(lp4240
I3135
aI3729
aI4572
asI7190
(lp4241
I3256
aI3103
aI2133
asI360281
(lp4242
I4508
aI2231
aI4957
asI629784
(lp4243
I4212
aI2072
aI7854
asI272900
(lp4244
I3810
aI2631
aI4991
asI621594
(lp4245
I3839
aI1875
aI7210
asI441372
(lp4246
I2371
aI3736
aI5799
asI239331
(lp4247
I4757
aI2671
aI3788
asI672403
(lp4248
I4320
aI2326
aI7864
asI105505
(lp4249
I4872
aI2857
aI2987
asI302115
(lp4250
I4550
aI2876
aI4733
asI445148
(lp4251
I3057
aI1858
aI6133
asI154118
(lp4252
I4020
aI4131
aI3437
asI80934
(lp4253
I4843
aI2945
aI2242
asI547880
(lp4254
I2072
aI2544
aI7236
asI465961
(lp4255
I4240
aI2007
aI5548
asI629802
(lp4256
I4287
aI1912
aI7474
asI89131
(lp4257
I3385
aI3815
aI2703
asI33970
(lp4258
I3254
aI4059
aI2614
asI441392
(lp4259
I2009
aI3594
aI5915
asI302131
(lp4260
I4651
aI3066
aI4467
asI363768
(lp4261
I4439
aI2798
aI4974
asI384054
(lp4262
I3573
aI2131
aI5508
asI215561
(lp4263
I3356
aI2809
aI3691
asI414597
(lp4264
I4221
aI3012
aI5237
asI89146
(lp4265
I4810
aI2518
aI3170
asI318523
(lp4266
I3468
aI2431
aI5130
asI19020
(lp4267
I4069
aI2405
aI1957
asI89152
(lp4268
I2892
aI3797
aI2782
asI364384
(lp4269
I4594
aI2938
aI4627
asI100875
(lp4270
I4166
aI3440
aI2658
asI15429
(lp4271
I3472
aI4105
aI1931
asI547912
(lp4272
I3560
aI3227
aI7400
asI56393
(lp4273
I4877
aI2820
aI2728
asI482378
(lp4274
I4456
aI2545
aI5889
asI16660
(lp4275
I4402
aI2527
aI3674
asI384077
(lp4276
I2562
aI2112
aI5502
asI682509
(lp4277
I3833
aI3547
aI5472
asI613457
(lp4278
I4273
aI2770
aI7540
asI547923
(lp4279
I2133
aI2945
aI7124
asI253012
(lp4280
I3843
aI3880
aI4530
asI182798
(lp4281
I4490
aI2143
aI4664
asI152969
(lp4282
I3354
aI3287
aI3067
asI582841
(lp4283
I4575
aI3669
aI1792
asI424495
(lp4284
I4507
aI2047
aI5063
asI449629
(lp4285
I2804
aI2865
aI6221
asI146526
(lp4286
I2920
aI2589
aI3578
asI572513
(lp4287
I3224
aI2848
aI6676
asI384098
(lp4288
I2908
aI2513
aI5393
asI262113
(lp4289
I3072
aI2958
aI4428
asI334948
(lp4290
I4595
aI2988
aI4890
asI376813
(lp4291
I2774
aI3469
aI5773
asI310380
(lp4292
I4036
aI3803
aI4984
asI48237
(lp4293
I2873
aI4247
aI2451
asI15471
(lp4294
I3149
aI4259
aI1810
asI253040
(lp4295
I2206
aI3600
aI4404
asI253042
(lp4296
I3622
aI3414
aI4597
asI384115
(lp4297
I3038
aI2270
aI5687
asI89204
(lp4298
I4454
aI3920
aI2892
asI518802
(lp4299
I2968
aI3486
aI6427
asI51732
(lp4300
I3326
aI3099
aI2194
asI498810
(lp4301
I2611
aI1997
aI6438
asI509119
(lp4302
I3613
aI1815
aI7354
asI498812
(lp4303
I3619
aI2480
aI3176
asI171133
(lp4304
I4306
aI2433
aI3346
asI318590
(lp4305
I2632
aI1958
aI4709
asI182805
(lp4306
I4810
aI2627
aI2654
asI547969
(lp4307
I2713
aI2753
aI7432
asI72835
(lp4308
I4963
aI3168
aI2247
asI363862
(lp4309
I4463
aI3399
aI4653
asI342884
(lp4310
I3253
aI3925
aI4532
asI332765
(lp4311
I3788
aI2402
aI4617
asI621707
(lp4312
I3823
aI2085
aI7357
asI498830
(lp4313
I2572
aI1815
aI6495
asI253075
(lp4314
I2290
aI3608
aI4469
asI23701
(lp4315
I3933
aI3554
aI2423
asI404780
(lp4316
I3883
aI2922
aI5358
asI318616
(lp4317
I3274
aI2390
aI4673
asI56473
(lp4318
I4441
aI3533
aI2548
asI294044
(lp4319
I3880
aI3678
aI4535
asI211482
(lp4320
I3726
aI2178
aI3748
asI589454
(lp4321
I4164
aI1905
aI6975
asI310432
(lp4322
I2213
aI3192
aI4849
asI212129
(lp4323
I3603
aI2591
aI3685
asI56483
(lp4324
I3986
aI3639
aI2358
asI308422
(lp4325
I2377
aI3416
aI4926
asI138406
(lp4326
I2667
aI2738
aI3226
asI56489
(lp4327
I3517
aI3833
aI2544
asI498859
(lp4328
I2716
aI1958
aI6766
asI23724
(lp4329
I3834
aI3553
aI2713
asI605358
(lp4330
I2394
aI1868
aI7408
asI533704
(lp4331
I4124
aI2023
aI6281
asI56498
(lp4332
I3824
aI4069
aI2618
asI474292
(lp4333
I3835
aI2848
aI5986
asI326837
(lp4334
I3155
aI3314
aI4876
asI433334
(lp4335
I4496
aI3324
aI5412
asI132297
(lp4336
I4818
aI3179
aI2813
asI294072
(lp4337
I4122
aI3935
aI4359
asI170527
(lp4338
I4105
aI2252
aI3072
asI490684
(lp4339
I2164
aI2736
aI6205
asI392381
(lp4340
I2777
aI3733
aI5202
asI310462
(lp4341
I4050
aI3628
aI4993
asI318655
(lp4342
I2942
aI3715
aI4797
asI236064
(lp4343
I4637
aI2578
aI3929
asI589728
(lp4344
I4362
aI2214
aI6431
asI89284
(lp4345
I2495
aI3600
aI2542
asI613573
(lp4346
I3475
aI1821
aI7345
asI429332
(lp4347
I4510
aI2518
aI5352
asI8156
(lp4348
I3797
aI2749
aI1669
asI498893
(lp4349
I2675
aI1819
aI6512
asI466126
(lp4350
I4144
aI2425
aI5769
asI316621
(lp4351
I2216
aI3862
aI5008
asI294099
(lp4352
I4066
aI3697
aI4343
asI138452
(lp4353
I4661
aI2389
aI3565
asI310485
(lp4354
I2514
aI3145
aI4759
asI236068
(lp4355
I4536
aI3353
aI4675
asI140495
(lp4356
I2706
aI3592
aI3150
asI15580
(lp4357
I3221
aI4106
aI1851
asI269535
(lp4358
I3118
aI3876
aI4624
asI154848
(lp4359
I4266
aI2875
aI3490
asI302305
(lp4360
I4700
aI3282
aI4229
asI425186
(lp4361
I4509
aI1912
aI5214
asI466150
(lp4362
I3911
aI1820
aI6076
asI238801
(lp4363
I4747
aI2999
aI3801
asI40609
(lp4364
I4567
aI3472
aI1991
asI498921
(lp4365
I3049
aI1842
aI6199
asI429949
(lp4366
I4468
aI3082
aI5416
asI335089
(lp4367
I4094
aI2485
aI4721
asI376050
(lp4368
I2056
aI3167
aI5264
asI548083
(lp4369
I3086
aI3300
aI7275
asI244980
(lp4370
I2541
aI2565
aI4323
asI630006
(lp4371
I4247
aI1790
aI7102
asI384253
(lp4372
I2988
aI1823
aI5813
asI597251
(lp4373
I2226
aI2353
aI7066
asI244996
(lp4374
I2483
aI2637
aI4686
asI418150
(lp4375
I3973
aI3487
aI5165
asI498950
(lp4376
I3147
aI2062
aI6713
asI269577
(lp4377
I3289
aI3606
aI4447
asI408842
(lp4378
I3962
aI3672
aI5267
asI574679
(lp4379
I3359
aI3692
aI6873
asI8230
(lp4380
I4620
aI3662
aI1618
asI101177
(lp4381
I3498
aI3986
aI2950
asI211501
(lp4382
I3524
aI2122
aI3877
asI449809
(lp4383
I3945
aI4159
aI3003
asI380803
(lp4384
I2260
aI3239
aI5568
asI441621
(lp4385
I2209
aI3323
aI6004
asI441627
(lp4386
I2725
aI2927
aI6592
asI447519
(lp4387
I2721
aI2778
aI6292
asI89378
(lp4388
I2730
aI3372
aI2709
asI7463
(lp4389
I3910
aI2631
aI1812
asI427228
(lp4390
I4450
aI2601
aI5562
asI589849
(lp4391
I4044
aI2097
aI6569
asI32045
(lp4392
I4421
aI4237
aI1799
asI15663
(lp4393
I4210
aI4151
aI2790
asI23856
(lp4394
I4839
aI3756
aI2012
asI632013
(lp4395
I4013
aI2215
aI7005
asI24457
(lp4396
I4306
aI4139
aI2431
asI245050
(lp4397
I2374
aI2949
aI4073
asI548156
(lp4398
I2543
aI3543
aI6146
asI318781
(lp4399
I3797
aI3638
aI4971
asI399237
(lp4400
I4409
aI2008
aI5844
asI138559
(lp4401
I3671
aI3786
aI3353
asI605504
(lp4402
I3154
aI1988
aI7435
asI376129
(lp4403
I2532
aI3044
aI5290
asI19344
(lp4404
I3604
aI3002
aI1588
asI297855
(lp4405
I4302
aI2154
aI4487
asI79629
(lp4406
I4858
aI2512
aI2232
asI441670
(lp4407
I2424
aI3434
aI6119
asI499015
(lp4408
I2449
aI1801
aI6625
asI32073
(lp4409
I5005
aI3728
aI1912
asI310602
(lp4410
I2945
aI3093
aI4882
asI548171
(lp4411
I2693
aI3648
aI7291
asI129003
(lp4412
I4746
aI2473
aI2940
asI548180
(lp4413
I1960
aI3537
aI6950
asI327566
(lp4414
I3035
aI3691
aI5029
asI539990
(lp4415
I4084
aI2741
aI6237
asI211513
(lp4416
I4575
aI2401
aI4483
asI425304
(lp4417
I4347
aI2088
aI5278
asI138587
(lp4418
I2932
aI2365
aI4761
asI138588
(lp4419
I2872
aI3091
aI5103
asI376157
(lp4420
I2404
aI2424
aI5824
asI548190
(lp4421
I2075
aI3617
aI6912
asI7519
(lp4422
I4623
aI3224
aI3006
asI392544
(lp4423
I3570
aI3418
aI5494
asI548193
(lp4424
I2121
aI3437
aI7287
asI297531
(lp4425
I4423
aI2212
aI4345
asI284833
(lp4426
I4548
aI2029
aI4878
asI319377
(lp4427
I2969
aI2741
aI4768
asI126276
(lp4428
I4137
aI4015
aI3153
asI297532
(lp4429
I4695
aI2129
aI4358
asI392554
(lp4430
I2931
aI3549
aI5271
asI7531
(lp4431
I3352
aI3294
aI1616
asI188306
(lp4432
I4584
aI3669
aI3441
asI138607
(lp4433
I2681
aI2961
aI3633
asI269681
(lp4434
I3236
aI3528
aI4684
asI384370
(lp4435
I2801
aI2687
aI5110
asI556404
(lp4436
I2548
aI2385
aI6871
asI49079
(lp4437
I4587
aI2972
aI2163
asI138614
(lp4438
I2581
aI3078
aI3479
asI89463
(lp4439
I2482
aI3318
aI2695
asI630136
(lp4440
I4336
aI2085
aI7326
asI392571
(lp4441
I3074
aI3806
aI5172
asI458108
(lp4442
I4665
aI2839
aI4446
asI279786
(lp4443
I3496
aI3147
aI4493
asI79631
(lp4444
I4740
aI2395
aI2164
asI597377
(lp4445
I1877
aI2353
aI7080
asI575277
(lp4446
I3350
aI3610
aI6663
asI245126
(lp4447
I2398
aI2837
aI4127
asI605577
(lp4448
I2391
aI1792
aI7474
asI138635
(lp4449
I3913
aI2466
aI3352
asI245134
(lp4450
I2296
aI3398
aI4148
asI368015
(lp4451
I4570
aI3301
aI4718
asI368018
(lp4452
I4597
aI3260
aI4692
asI630163
(lp4453
I4203
aI1896
aI7197
asI89494
(lp4454
I2485
aI3538
aI2589
asI35441
(lp4455
I4369
aI4146
aI2010
asI574703
(lp4456
I3349
aI3504
aI7017
asI195998
(lp4457
I4075
aI3440
aI4569
asI597409
(lp4458
I2962
aI2362
aI7392
asI469997
(lp4459
I4364
aI2359
aI6116
asI630179
(lp4460
I4275
aI1896
aI7162
asI368036
(lp4461
I4192
aI3188
aI4764
asI589724
(lp4462
I4100
aI1790
aI6621
asI630186
(lp4463
I3926
aI2162
aI7151
asI7595
(lp4464
I3765
aI2673
aI1994
asI392621
(lp4465
I3772
aI3598
aI5272
asI507310
(lp4466
I2748
aI3617
aI6464
asI318895
(lp4467
I2628
aI2273
aI4755
asI7600
(lp4468
I3153
aI2462
aI1693
asI286129
(lp4469
I4050
aI2017
aI4504
asI523698
(lp4470
I3934
aI2945
aI6091
asI482740
(lp4471
I4131
aI2758
aI5744
asI577438
(lp4472
I3596
aI2069
aI7112
asI613817
(lp4473
I3616
aI2122
aI7456
asI318907
(lp4474
I2632
aI2055
aI4783
asI179645
(lp4475
I4343
aI4175
aI3495
asI574709
(lp4476
I3238
aI3452
aI7173
asI269760
(lp4477
I3759
aI2126
aI3746
asI528288
(lp4478
I3856
aI3053
aI6493
asI294338
(lp4479
I4020
aI3929
aI4425
asI441796
(lp4480
I2893
aI3476
aI6213
asI138693
(lp4481
I2430
aI3234
aI3412
asI138694
(lp4482
I2912
aI2747
aI3389
asI270241
(lp4483
I4629
aI2583
aI4376
asI138697
(lp4484
I3136
aI3115
aI3307
asI533510
(lp4485
I4250
aI1782
aI6220
asI245196
(lp4486
I2462
aI2946
aI4227
asI15824
(lp4487
I3778
aI3979
aI2040
asI8934648
(lp4488
I3824
aI3881
aI1996
asI384466
(lp4489
I2700
aI2413
aI5014
asI40403
(lp4490
I4975
aI3479
aI1720
asI114132
(lp4491
I3949
aI3247
aI2852
asI40405
(lp4492
I4929
aI3387
aI1533
asI220630
(lp4493
I3845
aI4045
aI3921
asI179672
(lp4494
I4047
aI3962
aI3458
asI277977
(lp4495
I3474
aI3424
aI4145
asI346703
(lp4496
I4483
aI2819
aI4641
asI22077
(lp4497
I4949
aI3294
aI2150
asI458206
(lp4498
I3172
aI2778
aI5670
asI425439
(lp4499
I4500
aI2085
aI5292
asI138720
(lp4500
I3362
aI3412
aI4435
asI105954
(lp4501
I3365
aI4038
aI2949
asI671654
(lp4502
I4194
aI2249
aI7867
asI597478
(lp4503
I2044
aI2215
aI7561
asI416337
(lp4504
I3883
aI2866
aI5280
asI490985
(lp4505
I2185
aI2878
aI6503
asI364104
(lp4506
I4388
aI2728
aI4628
asI196077
(lp4507
I2607
aI4090
aI3686
asI392691
(lp4508
I2731
aI3733
aI5140
asI441847
(lp4509
I2320
aI3516
aI6456
asI613880
(lp4510
I3467
aI2063
aI7390
asI597498
(lp4511
I2490
aI2634
aI7487
asI468223
(lp4512
I3895
aI1814
aI5980
asI70912
(lp4513
I4426
aI2284
aI2392
asI581547
(lp4514
I3881
aI2681
aI6733
asI589466
(lp4515
I4261
aI2063
aI6879
asI245257
(lp4516
I2477
aI2442
aI4567
asI155146
(lp4517
I4003
aI3275
aI3468
asI220684
(lp4518
I3544
aI3881
aI4685
asI171534
(lp4519
I4328
aI2322
aI3165
asI122383
(lp4520
I4286
aI2857
aI2904
asI360329
(lp4521
I4458
aI2204
aI5124
asI515602
(lp4522
I3592
aI2701
aI6569
asI574723
(lp4523
I3663
aI3475
aI7515
asI48661
(lp4524
I3645
aI2586
aI2768
asI597526
(lp4525
I2009
aI2481
aI7335
asI371289
(lp4526
I2596
aI3088
aI5141
asI48665
(lp4527
I4716
aI2570
aI2412
asI245275
(lp4528
I3474
aI2920
aI4810
asI220701
(lp4529
I3715
aI3906
aI3988
asI24094
(lp4530
I3935
aI4153
aI3083
asI212511
(lp4531
I4756
aI2531
aI3951
asI24100
(lp4532
I4245
aI4182
aI1541
asI48678
(lp4533
I3486
aI2443
aI3073
asI605737
(lp4534
I3148
aI2173
aI7343
asI48683
(lp4535
I3133
aI2495
aI2461
asI24108
(lp4536
I3516
aI3780
aI4199
asI245293
(lp4537
I4369
aI3043
aI4558
asI491056
(lp4538
I1941
aI2984
aI6512
asI441906
(lp4539
I1975
aI3466
aI6262
asI343603
(lp4540
I3448
aI3756
aI4641
asI343605
(lp4541
I3390
aI3525
aI4677
asI521481
(lp4542
I3871
aI1992
aI6345
asI556600
(lp4543
I2991
aI2707
aI6766
asI366131
(lp4544
I4589
aI2778
aI4962
asI40510
(lp4545
I4770
aI3745
aI1995
asI106047
(lp4546
I3299
aI4228
aI2886
asI302657
(lp4547
I4414
aI3265
aI4290
asI212546
(lp4548
I3298
aI2209
aI3728
asI179779
(lp4549
I4285
aI3938
aI3453
asI523844
(lp4550
I4098
aI3128
aI6262
asI626614
(lp4551
I3859
aI2982
aI7136
asI564806
(lp4552
I3089
aI1780
aI6952
asI179783
(lp4553
I4260
aI4053
aI3459
asI564809
(lp4554
I3387
aI1800
aI7030
asI564810
(lp4555
I3402
aI1802
aI7467
asI548427
(lp4556
I2361
aI3616
aI6508
asI319054
(lp4557
I3941
aI2000
aI4816
asI89679
(lp4558
I4761
aI2457
aI3213
asI441938
(lp4559
I2535
aI3629
aI5992
asI310867
(lp4560
I3211
aI2524
aI5032
asI319060
(lp4561
I2876
aI1950
aI4864
asI450134
(lp4562
I2299
aI3749
aI5408
asI564823
(lp4563
I3412
aI1795
aI6995
asI441944
(lp4564
I2044
aI3341
aI6247
asI409177
(lp4565
I3719
aI3108
aI6568
asI564827
(lp4566
I3141
aI1809
aI6998
asI155228
(lp4567
I2904
aI3698
aI3485
asI147386
(lp4568
I4699
aI2890
aI3532
asI241944
(lp4569
I4762
aI3242
aI3783
asI155234
(lp4570
I2878
aI3723
aI3465
asI266171
(lp4571
I3168
aI3652
aI4535
asI435347
(lp4572
I3374
aI2787
aI6718
asI303022
(lp4573
I4542
aI3013
aI4556
asI81514
(lp4574
I4974
aI3045
aI2291
asI376428
(lp4575
I4392
aI2952
aI5912
asI152850
(lp4576
I3288
aI3246
aI3040
asI188014
(lp4577
I4743
aI3387
aI3488
asI409202
(lp4578
I3852
aI3793
aI5239
asI431379
(lp4579
I4500
aI2989
aI5169
asI673855
(lp4580
I4066
aI2885
aI7786
asI310902
(lp4581
I2476
aI3523
aI4844
asI245367
(lp4582
I2815
aI1999
aI4401
asI310906
(lp4583
I2459
aI3564
aI4794
asI208622
(lp4584
I3085
aI3869
aI3869
asI360062
(lp4585
I3621
aI3699
aI4969
asI589444
(lp4586
I4365
aI2213
aI6701
asI435478
(lp4587
I2563
aI2456
aI6204
asI589447
(lp4588
I4155
aI2080
aI6872
asI441992
(lp4589
I2403
aI3755
aI5936
asI449533
(lp4590
I3084
aI2770
aI6038
asI589452
(lp4591
I4211
aI2181
aI6605
asI564877
(lp4592
I3225
aI2362
aI6947
asI523918
(lp4593
I3541
aI2274
aI6209
asI48783
(lp4594
I3922
aI2718
aI2510
asI614032
(lp4595
I3144
aI2168
aI7993
asI132376
(lp4596
I4948
aI3017
aI2882
asI589458
(lp4597
I4200
aI1881
aI6942
asI303043
(lp4598
I4358
aI3157
aI4494
asI589461
(lp4599
I4364
aI1939
aI6967
asI507543
(lp4600
I2695
aI3672
aI6436
asI564888
(lp4601
I4372
aI2624
aI7191
asI270276
(lp4602
I3753
aI2194
aI4226
asI319130
(lp4603
I3023
aI2115
aI4819
asI589467
(lp4604
I4271
aI2108
aI6944
asI589469
(lp4605
I4257
aI2222
aI6748
asI666123
(lp4606
I3616
aI2050
aI7756
asI589473
(lp4607
I4381
aI2483
aI6883
asI2716
(lp4608
I2836
aI3297
aI2617
asI480631
(lp4609
I4455
aI2192
aI5885
asI229028
(lp4610
I4447
aI3473
aI3732
asI106149
(lp4611
I4043
aI4234
aI2996
asI16038
(lp4612
I4078
aI3026
aI2189
asI594927
(lp4613
I4380
aI2992
aI7657
asI73385
(lp4614
I4358
aI3184
aI2380
asI442026
(lp4615
I2103
aI3365
aI6021
asI507567
(lp4616
I2522
aI3545
aI6435
asI8928944
(lp4617
I3449
aI3890
aI3412
asI139208
(lp4618
I4438
aI3575
aI3587
asI577529
(lp4619
I3887
aI2059
aI7110
asI1777332
(lp4620
I2559
aI3058
aI2213
asI368312
(lp4621
I4284
aI3166
aI4730
asI89785
(lp4622
I2917
aI3617
aI2847
asI138938
(lp4623
I3050
aI2916
aI3420
asI349471
(lp4624
I4049
aI2627
aI5396
asI270013
(lp4625
I4014
aI2528
aI4424
asI211573
(lp4626
I3784
aI2215
aI3945
asI270025
(lp4627
I3398
aI2217
aI4102
asI229068
(lp4628
I3841
aI3460
aI4298
asI89805
(lp4629
I2734
aI3643
aI2915
asI564943
(lp4630
I3886
aI2072
aI7190
asI622288
(lp4631
I4323
aI2346
aI7805
asI590208
(lp4632
I4383
aI1778
aI6668
asI7892
(lp4633
I3787
aI2667
aI2313
asI564950
(lp4634
I3301
aI1980
aI7118
asI466895
(lp4635
I3908
aI2013
aI5701
asI302814
(lp4636
I4434
aI3382
aI4517
asI516048
(lp4637
I3506
aI3218
aI6608
asI302818
(lp4638
I4342
aI3421
aI4513
asI414347
(lp4639
I3944
aI2848
aI5582
asI597733
(lp4640
I2097
aI2558
aI7447
asI64124
(lp4641
I4022
aI3533
aI2260
asI343786
(lp4642
I3463
aI3844
aI4745
asI196331
(lp4643
I2931
aI2975
aI4179
asI204524
(lp4644
I3887
aI3112
aI4067
asI417517
(lp4645
I3743
aI2925
aI7069
asI507630
(lp4646
I3474
aI3382
aI6134
asI302832
(lp4647
I4549
aI3346
aI4447
asI334695
(lp4648
I3525
aI2651
aI5582
asI16116
(lp4649
I3303
aI4245
aI2272
asI679669
(lp4650
I3850
aI3256
aI5108
asI7928
(lp4651
I3126
aI2405
aI1831
asI614137
(lp4652
I3983
aI3107
aI7649
asI409339
(lp4653
I3853
aI3287
aI5457
asI455538
(lp4654
I4270
aI3118
aI5781
asI318606
(lp4655
I2894
aI2019
aI4769
asI425941
(lp4656
I4507
aI1977
aI5318
asI540416
(lp4657
I4367
aI2986
aI6360
asI368389
(lp4658
I4286
aI3172
aI4758
asI662145
(lp4659
I3491
aI2776
aI7719
asI9539
(lp4660
I3989
aI3288
aI1572
asI188171
(lp4661
I4196
aI3381
aI4299
asI384780
(lp4662
I3853
aI2037
aI5477
asI449154
(lp4663
I3172
aI3272
aI5905
asI540430
(lp4664
I4379
aI2813
aI6430
asI614159
(lp4665
I3921
aI2442
aI7298
asI367543
(lp4666
I4592
aI3101
aI4680
asI450323
(lp4667
I2847
aI3499
aI6290
asI293508
(lp4668
I3922
aI3897
aI4080
asI360218
(lp4669
I4270
aI2012
aI4868
asI229147
(lp4670
I4404
aI3474
aI3818
asI371522
(lp4671
I3751
aI3189
aI5470
asI360221
(lp4672
I4337
aI2091
aI4732
asI507679
(lp4673
I4340
aI1813
aI7085
asI360224
(lp4674
I4491
aI2258
aI5490
asI398640
(lp4675
I4322
aI2565
aI5541
asI417755
(lp4676
I4148
aI3370
aI5442
asI7972
(lp4677
I3740
aI2712
aI1687
asI139045
(lp4678
I4240
aI3202
aI3386
asI319270
(lp4679
I3096
aI1960
aI4861
asI21809
(lp4680
I4704
aI3758
aI2077
asI253737
(lp4681
I2637
aI3634
aI4266
asI360234
(lp4682
I4606
aI2293
aI4928
asI155435
(lp4683
I2869
aI3619
aI3554
asI442158
(lp4684
I2470
aI3437
aI6293
asI343855
(lp4685
I3346
aI3870
aI4710
asI24368
(lp4686
I4626
aI3745
aI2039
asI360241
(lp4687
I4122
aI3289
aI5424
asI507698
(lp4688
I3367
aI3303
aI6820
asI320819
(lp4689
I4410
aI2130
aI5189
asI139060
(lp4690
I3511
aI3499
aI3417
asI352222
(lp4691
I3876
aI3400
aI4961
asI245559
(lp4692
I2417
aI3340
aI4324
asI24376
(lp4693
I3981
aI4116
aI1704
asI7994
(lp4694
I3437
aI2632
aI2314
asI270140
(lp4695
I3515
aI2017
aI4268
asI158346
(lp4696
I4685
aI3231
aI4289
asI238901
(lp4697
I4642
aI3086
aI3245
asI597824
(lp4698
I2677
aI2329
aI7528
asI28640
(lp4699
I3363
aI2787
aI3638
asI35728
(lp4700
I4875
aI2281
aI1919
asI614211
(lp4701
I2868
aI2206
aI6357
asI595205
(lp4702
I4233
aI3087
aI6630
asI360261
(lp4703
I3949
aI2159
aI5406
asI360263
(lp4704
I3607
aI2996
aI5241
asI604812
(lp4705
I2740
aI1789
aI7172
asI360266
(lp4706
I4588
aI2640
aI4917
asI37315
(lp4707
I4954
aI2487
aI1915
asI343884
(lp4708
I3209
aI3904
aI4717
asI579384
(lp4709
I3659
aI1789
aI6863
asI360273
(lp4710
I4606
aI2494
aI4970
asI311123
(lp4711
I4040
aI2840
aI5291
asI353793
(lp4712
I4027
aI3449
aI4759
asI529465
(lp4713
I3580
aI3611
aI6144
asI218425
(lp4714
I4676
aI3246
aI3816
asI24409
(lp4715
I3566
aI4082
aI1928
asI360283
(lp4716
I4515
aI2620
aI4964
asI594978
(lp4717
I3969
aI3111
aI7083
asI270173
(lp4718
I3885
aI2283
aI4231
asI270174
(lp4719
I3594
aI2200
aI4256
asI114527
(lp4720
I4701
aI2943
aI3222
asI35729
(lp4721
I4998
aI2340
aI2110
asI360233
(lp4722
I4471
aI2258
aI5105
asI589666
(lp4723
I4284
aI1880
aI6575
asI468283
(lp4724
I4376
aI2343
aI6679
asI597861
(lp4725
I3854
aI2750
aI7739
asI671590
(lp4726
I4225
aI1981
aI7879
asI360295
(lp4727
I4330
aI2124
aI5129
asI450409
(lp4728
I3160
aI3301
aI6397
asI114538
(lp4729
I3368
aI3741
aI3100
asI442219
(lp4730
I2588
aI3754
aI5724
asI409987
(lp4731
I3693
aI2999
aI5789
asI245613
(lp4732
I3919
aI2665
aI4931
asI319342
(lp4733
I2837
aI1963
aI4823
asI491376
(lp4734
I2386
aI2873
aI6240
asI143336
(lp4735
I2815
aI4212
aI3157
asI666130
(lp4736
I3840
aI1950
aI7675
asI245619
(lp4737
I2626
aI2723
aI4176
asI24438
(lp4738
I3910
aI4240
aI1856
asI24440
(lp4739
I4051
aI4257
aI1907
asI532345
(lp4740
I3648
aI3341
aI6482
asI376700
(lp4741
I2613
aI3614
aI5292
asI581502
(lp4742
I3503
aI2888
aI6830
asI597887
(lp4743
I2110
aI2521
aI7204
asI139136
(lp4744
I2451
aI2742
aI3595
asI524163
(lp4745
I3408
aI2330
aI6198
asI345884
(lp4746
I4045
aI1894
aI5181
asI475015
(lp4747
I3950
aI3434
aI5956
asI520172
(lp4748
I3576
aI1844
aI6082
asI319370
(lp4749
I4122
aI2461
aI4941
asI327563
(lp4750
I3253
aI3577
aI6794
asI376718
(lp4751
I2249
aI3326
aI5301
asI90093
(lp4752
I2520
aI3476
aI2745
asI360336
(lp4753
I4197
aI2126
aI5030
asI327569
(lp4754
I2852
aI3613
aI5253
asI475026
(lp4755
I3758
aI3598
aI6125
asI507795
(lp4756
I2762
aI3655
aI6715
asI327572
(lp4757
I3507
aI1997
aI5323
asI90005
(lp4758
I2616
aI3734
aI2805
asI57238
(lp4759
I3817
aI4082
aI2177
asI188311
(lp4760
I4789
aI3636
aI3479
asI16280
(lp4761
I4042
aI4154
aI2071
asI327577
(lp4762
I3187
aI3726
aI4885
asI188314
(lp4763
I4677
aI3623
aI3402
asI270236
(lp4764
I3858
aI2141
aI4375
asI466845
(lp4765
I3836
aI1799
aI5753
asI49055
(lp4766
I3533
aI2322
aI2060
asI671648
(lp4767
I4046
aI1960
aI7744
asI212897
(lp4768
I4149
aI2280
aI3886
asI671651
(lp4769
I4288
aI2193
aI7813
asI335782
(lp4770
I3544
aI2890
aI4620
asI532391
(lp4771
I3872
aI3637
aI6615
asI314012
(lp4772
I3877
aI3796
aI4873
asI327595
(lp4773
I3725
aI3805
aI5006
asI475052
(lp4774
I3808
aI3553
aI6104
asI475054
(lp4775
I3876
aI3545
aI6242
asI303023
(lp4776
I4700
aI3337
aI4394
asI139185
(lp4777
I3288
aI3407
aI3286
asI417779
(lp4778
I3962
aI3741
aI5595
asI196534
(lp4779
I2573
aI3231
aI3935
asI255305
(lp4780
I4250
aI3069
aI4788
asI303092
(lp4781
I4522
aI3198
aI4489
asI548794
(lp4782
I2372
aI3684
aI6759
asI341794
(lp4783
I3983
aI3438
aI4885
asI327614
(lp4784
I3322
aI1934
aI5362
asI589813
(lp4785
I4286
aI1940
aI6737
asI475073
(lp4786
I3807
aI3513
aI6814
asI450499
(lp4787
I2790
aI3600
aI5743
asI458692
(lp4788
I3879
aI2239
aI7035
asI417733
(lp4789
I3900
aI3222
aI5492
asI483270
(lp4790
I4464
aI2419
aI5892
asI188359
(lp4791
I4451
aI3627
aI3330
asI262088
(lp4792
I2710
aI2773
aI4546
asI286668
(lp4793
I3952
aI2350
aI4787
asI329037
(lp4794
I3868
aI3746
aI5364
asI262096
(lp4795
I3053
aI2619
aI4519
asI139217
(lp4796
I2325
aI2960
aI3535
asI671700
(lp4797
I3978
aI1970
aI7776
asI466062
(lp4798
I3764
aI1992
aI6019
asI425942
(lp4799
I4033
aI2046
aI5289
asI319447
(lp4800
I4162
aI3094
aI4983
asI278489
(lp4801
I3562
aI3137
aI4242
asI46415
(lp4802
I2787
aI3823
aI2496
asI597980
(lp4803
I2248
aI2242
aI7178
asI212958
(lp4804
I3499
aI2343
aI3833
asI410262
(lp4805
I4097
aI2959
aI5457
asI439632
(lp4806
I2927
aI2770
aI5987
asI475106
(lp4807
I3758
aI3515
aI5783
asI352227
(lp4808
I4351
aI2781
aI4953
asI540644
(lp4809
I4374
aI2989
aI6380
asI682662
(lp4810
I3877
aI3603
aI7666
asI410961
(lp4811
I3935
aI2078
aI5118
asI344042
(lp4812
I3545
aI3791
aI4775
asI385005
(lp4813
I3958
aI2065
aI5256
asI188399
(lp4814
I4140
aI3307
aI4449
asI245747
(lp4815
I3577
aI2995
aI4276
asI311284
(lp4816
I2517
aI3599
aI4845
asI270325
(lp4817
I3796
aI2235
aI4307
asI40950
(lp4818
I5011
aI3286
aI1659
asI338601
(lp4819
I3584
aI3329
aI5005
asI352249
(lp4820
I3738
aI3377
aI5068
asI632251
(lp4821
I3937
aI2351
aI7143
asI434172
(lp4822
I2603
aI2178
aI6030
asI270333
(lp4823
I3858
aI2273
aI4313
as.